; ModuleID = 'c++++++++.bc'
target datalayout = "e-p:64:64:64-i1:8:8-i8:8:8-i16:16:16-i32:32:32-i64:64:64-f32:32:32-f64:64:64-v64:64:64-v128:128:128-a0:0:64-s0:64:64-f80:128:128-n8:16:32:64"
target triple = "x86_64-unknown-linux-gnu"

%0 = type { i64 }
%1 = type { void (i8*)*, i8*, i8* }
%2 = type { void (i32)* }
%3 = type { %4, [20 x i32] }
%4 = type { i32, i32, i32, i64, i64 }
%5 = type { i32, void ()* }
%6 = type { i16, i32, [32 x i8], [4 x i8], [32 x i8], [256 x i8], %struct.exit_status, i32, %struct.__mbstate_t, [4 x i32], [20 x i8] }
%struct..0__pthread_mutex_s = type { i32, i32, i32, i32, i32, i32, %struct.__pthread_list_t }
%struct.Elf64_auxv_t = type { i64, %0 }
%struct.FILE = type { i16, [2 x i8], i32, i8*, i8*, i8*, i8*, i8*, i8*, %struct.FILE*, [2 x i32], %struct.__mbstate_t }
%struct._IO_FILE = type { i32, i8*, i8*, i8*, i8*, i8*, i8*, i8*, i8*, i8*, i8*, i8*, %struct._IO_marker*, %struct._IO_FILE*, i32, i32, i64, i16, i8, [1 x i8], i8*, i64, i8*, i8*, i8*, i8*, i64, i32, [20 x i8] }
%struct._IO_marker = type { %struct._IO_marker*, %struct._IO_FILE*, i32 }
%struct.__acl_ext = type opaque
%struct.__fsid_t = type { [2 x i32] }
%struct.__jmp_buf_tag = type { [8 x i64], i32, %struct.__sigset_t }
%struct.__kernel_termios = type { i32, i32, i32, i32, i8, [19 x i8] }
%struct.__locale_data = type opaque
%struct.__locale_struct = type { [13 x %struct.__locale_data*], i16*, i32*, i32*, [13 x i8*] }
%struct.__mbstate_t = type { i32, i32 }
%struct.__pthread_list_t = type { %struct.__pthread_list_t*, %struct.__pthread_list_t* }
%struct.__sigset_t = type { [16 x i64] }
%struct.__va_list_tag = type { i32, i32, i8*, i8* }
%struct.a = type { i32 }
%struct.anon = type { void (i32, i8*)*, i8* }
%struct.dirent = type { i64, i64, i16, i8, [256 x i8] }
%struct.dirent64 = type { i64, i64, i16, i8, [256 x i8] }
%struct.exe_disk_file_t = type { i32, i8*, %struct.stat64* }
%struct.exe_file_system_t = type { i32, %struct.exe_disk_file_t*, %struct.exe_disk_file_t*, i32, %struct.exe_disk_file_t*, i32, i32*, i32*, i32*, i32*, i32*, i32*, i32* }
%struct.exe_file_t = type { i32, i32, i64, %struct.exe_disk_file_t* }
%struct.exe_sym_env_t = type { [32 x %struct.exe_file_t], i32, i32, i32 }
%struct.exit_function = type { i64, %union.anon }
%struct.exit_status = type { i16, i16 }
%struct.fd_set = type { [16 x i64] }
%struct.kernel_sigaction = type { void (i32)*, i64, void ()*, %struct.__sigset_t }
%struct.rlimit = type { i64, i64 }
%struct.rusage = type { %struct.rlimit, %struct.rlimit, i64, i64, i64, i64, i64, i64, i64, i64, i64, i64, i64, i64, i64, i64 }
%struct.sigaction = type { %2, %struct.__sigset_t, i32, void ()* }
%struct.siginfo_t = type { i32, i32, i32, %3 }
%struct.sigset_t = type { [16 x i64] }
%struct.stat = type { i64, i64, i64, i32, i32, i32, i32, i64, i64, i64, i64, i64, i64, i64, i64, i64, i64, [3 x i64] }
%struct.stat64 = type { i64, i64, i64, i32, i32, i32, i32, i64, i64, i64, i64, %struct.rlimit, %struct.rlimit, %struct.rlimit, [3 x i64] }
%struct.statfs = type { i64, i64, i64, i64, i64, i64, i64, %struct.__fsid_t, i64, i64, [5 x i64] }
%"struct.std::basic_ios<char,std::char_traits<char> >" = type { %"struct.std::ios_base", %"struct.std::basic_ostream<char,std::char_traits<char> >"*, i8, i8, %"struct.std::basic_streambuf<char,std::char_traits<char> >"*, %"struct.std::ctype<char>"*, %"st
%"struct.std::basic_ostream<char,std::char_traits<char> >" = type { i32 (...)**, %"struct.std::basic_ios<char,std::char_traits<char> >" }
%"struct.std::basic_streambuf<char,std::char_traits<char> >" = type { i32 (...)**, i8*, i8*, i8*, i8*, i8*, i8*, %"struct.std::locale" }
%"struct.std::ctype<char>" = type { %"struct.std::locale::facet", %struct.__locale_struct*, i8, i32*, i32*, i16*, i8, [256 x i8], [256 x i8], i8 }
%"struct.std::ios_base" = type { i32 (...)**, i64, i64, i32, i32, i32, %"struct.std::ios_base::_Callback_list"*, %"struct.std::ios_base::_Words", [8 x %"struct.std::ios_base::_Words"], i32, %"struct.std::ios_base::_Words"*, %"struct.std::locale" }
%"struct.std::ios_base::Init" = type <{ i8 }>
%"struct.std::ios_base::_Callback_list" = type { %"struct.std::ios_base::_Callback_list"*, void (i32, %"struct.std::ios_base"*, i32)*, i32, i32 }
%"struct.std::ios_base::_Words" = type { i8*, i64 }
%"struct.std::locale" = type { %"struct.std::locale::_Impl"* }
%"struct.std::locale::_Impl" = type { i32, %"struct.std::locale::facet"**, i64, %"struct.std::locale::facet"**, i8** }
%"struct.std::locale::facet" = type { i32 (...)**, i32 }
%"struct.std::locale::facet.base.64" = type { i32 (...)**, i32 }
%"struct.std::num_get<char,std::istreambuf_iterator<char, std::char_traits<char> > >" = type { %"struct.std::locale::facet" }
%"struct.std::num_put<char,std::ostreambuf_iterator<char, std::char_traits<char> > >" = type { %"struct.std::locale::facet" }
%struct.termios = type { i32, i32, i32, i32, i8, [32 x i8], i32, i32 }
%struct.timespec = type { i64, i64 }
%struct.timeval = type { i64, i64 }
%struct.tms = type { i64, i64, i64, i64 }
%struct.utmp = type { i16, i32, [32 x i8], [4 x i8], [32 x i8], [256 x i8], %struct.exit_status, i64, %struct.rlimit, [4 x i32], [20 x i8] }
%struct.utmpx = type opaque
%union.anon = type { %1 }
%union.pthread_attr_t = type { i64, [12 x i32] }
%union.pthread_mutex_t = type { %struct..0__pthread_mutex_s }
%union.pthread_mutexattr_t = type { i32 }
%union.sigval_t = type { i8* }

@_ZSt4cout = external global %"struct.std::basic_ostream<char,std::char_traits<char> >"
@.str = private constant [11 x i8] c"hhhhhhhhh\0A\00", align 1
@.str1 = private constant [8 x i8] c"ssssss\0A\00", align 1
@_ZStL8__ioinit = internal global %"struct.std::ios_base::Init" zeroinitializer
@__dso_handle = external global i8*
@.str2 = private constant [2 x i8] c"m\00", align 1
@llvm.global_ctors = appending global [1 x %5] [%5 { i32 65535, void ()* @_GLOBAL__I__ZN1a2mmEi }]
@__libc_stack_end = global i8* null
@__uclibc_progname = hidden global i8* null
@__environ = global i8** null
@__pagesize = global i64 0
@.str4 = private constant [10 x i8] c"/dev/null\00", align 1
@been_there_done_that.2846 = internal global i32 0
@__app_fini = hidden global void ()* null
@__rtld_fini = hidden global void ()* null
@static_fd = internal global i32 -1
@default_file_name = internal constant [14 x i8] c"/var/run/utmp\00"
@static_ut_name = internal global i8* getelementptr inbounds ([14 x i8]* @default_file_name, i64 0, i64 0)
@static_utmp = internal global %struct.utmp zeroinitializer, align 32
@been_there_done_that = internal global i32 0
@__exit_count = hidden global i32 0
@__exit_function_table = hidden global %struct.exit_function* null
@__exit_slots = hidden global i32 0
@_stdio_streams = internal global [3 x %struct.FILE] [%struct.FILE { i16 544, [2 x i8] zeroinitializer, i32 0, i8* null, i8* null, i8* null, i8* null, i8* null, i8* null, %struct.FILE* getelementptr inbounds ([3 x %struct.FILE]* @_stdio_streams, i64 0, i
@stdin = global %struct.FILE* getelementptr inbounds ([3 x %struct.FILE]* @_stdio_streams, i64 0, i64 0)
@stdout = global %struct.FILE* getelementptr inbounds ([3 x %struct.FILE]* @_stdio_streams, i64 0, i64 1)
@stderr = global %struct.FILE* getelementptr inbounds ([3 x %struct.FILE]* @_stdio_streams, i64 0, i64 2)
@__stdin = global %struct.FILE* getelementptr inbounds ([3 x %struct.FILE]* @_stdio_streams, i64 0, i64 0)
@__stdout = global %struct.FILE* getelementptr inbounds ([3 x %struct.FILE]* @_stdio_streams, i64 0, i64 1)
@_stdio_openlist = global %struct.FILE* getelementptr inbounds ([3 x %struct.FILE]* @_stdio_streams, i64 0, i64 0)
@__exit_cleanup = hidden global void (i32)* null
@errno = global i32 0
@h_errno = global i32 0
@.str43 = private constant [18 x i8] c"ignoring (ENOMEM)\00", align 1
@.str144 = private constant [18 x i8] c"ignoring (EACCES)\00", align 1
@.str245 = private constant [17 x i8] c"ignoring (EPERM)\00", align 1
@.str3 = private constant [10 x i8] c"illegal.c\00", align 1
@.str446 = private constant [20 x i8] c"longjmp unsupported\00", align 1
@.str5 = private constant [8 x i8] c"xxx.err\00", align 1
@.str6 = private constant [9 x i8] c"ignoring\00", align 1
@.str48 = private constant [32 x i8] c"silently ignoring (returning 0)\00", align 8
@.str149 = private constant [21 x i8] c"ignoring (-1 result)\00", align 1
@.str250 = private constant [17 x i8] c"ignoring (EPERM)\00", align 1
@.str351 = private constant [18 x i8] c"ignoring (EINVAL)\00", align 1
@.str452 = private constant [19 x i8] c"ignoring (ENONMEM)\00", align 1
@.str553 = private constant [18 x i8] c"ignoring (ENOMEM)\00", align 1
@.str654 = private constant [18 x i8] c"ignoring (ENOENT)\00", align 1
@.str7 = private constant [18 x i8] c"ignoring (ECHILD)\00", align 1
@.str8 = private constant [17 x i8] c"ignoring (EBADF)\00", align 1
@.str9 = private constant [18 x i8] c"ignoring (ENFILE)\00", align 1
@.str10 = private constant [15 x i8] c"ignoring (EIO)\00", align 1
@.str11 = private constant [24 x i8] c"ignoring (EAFNOSUPPORT)\00", align 1
@.str12 = private constant [18 x i8] c"silently ignoring\00", align 1
@.str63 = private constant [18 x i8] c"ignoring (ENOENT)\00", align 1
@.str164 = private constant [17 x i8] c"ignoring (EPERM)\00", align 1
@.str265 = private constant [32 x i8] c"symbolic file, ignoring (EPERM)\00", align 8
@.str366 = private constant [32 x i8] c"symbolic file, ignoring (EBADF)\00", align 8
@n_calls.5116 = internal global i32 0
@.str467 = private constant [30 x i8] c"symbolic file, ignoring (EIO)\00", align 1
@.str568 = private constant [33 x i8] c"symbolic file, ignoring (ENOENT)\00", align 8
@n_calls.5676 = internal global i32 0
@n_calls.4743 = internal global i32 0
@.str669 = private constant [33 x i8] c"symbolic file, ignoring (EINVAL)\00", align 8
@.str770 = private constant [41 x i8] c"(TCGETS) symbolic file, incomplete model\00", align 8
@.str871 = private constant [42 x i8] c"(TCSETS) symbolic file, silently ignoring\00", align 8
@.str972 = private constant [43 x i8] c"(TCSETSW) symbolic file, silently ignoring\00", align 8
@.str1073 = private constant [43 x i8] c"(TCSETSF) symbolic file, silently ignoring\00", align 8
@.str1174 = private constant [45 x i8] c"(TIOCGWINSZ) symbolic file, incomplete model\00", align 8
@.str1275 = private constant [46 x i8] c"(TIOCSWINSZ) symbolic file, ignoring (EINVAL)\00", align 8
@.str13 = private constant [43 x i8] c"(FIONREAD) symbolic file, incomplete model\00", align 8
@.str14 = private constant [44 x i8] c"(MTIOCGET) symbolic file, ignoring (EINVAL)\00", align 8
@.str15 = private constant [18 x i8] c"s != (off64_t) -1\00", align 1
@.str16 = private constant [5 x i8] c"fd.c\00", align 1
@__PRETTY_FUNCTION__.5153 = internal constant [14 x i8] c"__fd_getdents\00"
@.str17 = private constant [18 x i8] c"new_off == f->off\00", align 1
@__PRETTY_FUNCTION__.4897 = internal constant [11 x i8] c"__fd_lseek\00"
@n_calls.4763 = internal global i32 0
@.str18 = private constant [12 x i8] c"f->off >= 0\00", align 1
@__PRETTY_FUNCTION__.4766 = internal constant [5 x i8] c"read\00"
@n_calls.5023 = internal global i32 0
@n_calls.5000 = internal global i32 0
@n_calls.4824 = internal global i32 0
@.str19 = private constant [7 x i8] c"r >= 0\00", align 1
@__PRETTY_FUNCTION__.4827 = internal constant [6 x i8] c"write\00"
@.str20 = private constant [2 x i8] c"0\00", align 1
@.str21 = private constant [33 x i8] c"WARNING: write() ignores bytes.\0A\00", align 8
@.str22 = private constant [47 x i8] c"Undefined call to open(): O_EXCL w/o O_RDONLY\0A\00", align 8
@.str92 = private constant [16 x i8] c"klee_init_env.c\00", align 1
@.str193 = private constant [9 x i8] c"user.err\00", align 1
@.str294 = private constant [37 x i8] c"too many arguments for klee_init_env\00", align 8
@.str495 = private constant [7 x i8] c"--help\00", align 1
@.str596 = private constant [593 x i8] c"klee_init_env\0A\0Ausage: (klee_init_env) [options] [program arguments]\0A  -sym-arg <N>              - Replace by a symbolic argument with length N\0A  -sym-args <MIN> <MAX> <N> - Replace by at least MIN argument
@.str697 = private constant [10 x i8] c"--sym-arg\00", align 1
@.str798 = private constant [9 x i8] c"-sym-arg\00", align 1
@.str899 = private constant [48 x i8] c"--sym-arg expects an integer argument <max-len>\00", align 8
@.str9100 = private constant [11 x i8] c"--sym-args\00", align 1
@.str10101 = private constant [10 x i8] c"-sym-args\00", align 1
@.str11102 = private constant [77 x i8] c"--sym-args expects three integer arguments <min-argvs> <max-argvs> <max-len>\00", align 8
@.str12103 = private constant [7 x i8] c"n_args\00", align 1
@.str13104 = private constant [12 x i8] c"--sym-files\00", align 1
@.str14105 = private constant [11 x i8] c"-sym-files\00", align 1
@.str15106 = private constant [72 x i8] c"--sym-files expects two integer arguments <no-sym-files> <sym-file-len>\00", align 8
@.str16107 = private constant [13 x i8] c"--sym-stdout\00", align 1
@.str17108 = private constant [12 x i8] c"-sym-stdout\00", align 1
@.str18109 = private constant [18 x i8] c"--save-all-writes\00", align 1
@.str19110 = private constant [17 x i8] c"-save-all-writes\00", align 1
@.str20111 = private constant [10 x i8] c"--fd-fail\00", align 1
@.str21112 = private constant [9 x i8] c"-fd-fail\00", align 1
@.str22113 = private constant [11 x i8] c"--max-fail\00", align 1
@.str23 = private constant [10 x i8] c"-max-fail\00", align 1
@.str24 = private constant [54 x i8] c"--max-fail expects an integer argument <max-failures>\00", align 8
@__exe_env = global %struct.exe_sym_env_t { [32 x %struct.exe_file_t] [%struct.exe_file_t { i32 0, i32 5, i64 0, %struct.exe_disk_file_t* null }, %struct.exe_file_t { i32 1, i32 9, i64 0, %struct.exe_disk_file_t* null }, %struct.exe_file_t { i32 2, i32 9
@.str116 = private constant [6 x i8] c"-stat\00", align 1
@.str1117 = private constant [5 x i8] c"size\00", align 1
@.str2118 = private constant [10 x i8] c"fd_init.c\00", align 1
@__PRETTY_FUNCTION__.4418 = internal constant [19 x i8] c"__create_new_dfile\00", align 16
@.str4119 = private constant [2 x i8] c".\00", align 1
@__exe_fs = common global %struct.exe_file_system_t zeroinitializer, align 32
@.str5121 = private constant [6 x i8] c"stdin\00", align 1
@.str6122 = private constant [10 x i8] c"read_fail\00", align 1
@.str7123 = private constant [11 x i8] c"write_fail\00", align 1
@.str8124 = private constant [11 x i8] c"close_fail\00", align 1
@.str9125 = private constant [15 x i8] c"ftruncate_fail\00", align 1
@.str10126 = private constant [12 x i8] c"getcwd_fail\00", align 1
@.str11127 = private constant [7 x i8] c"stdout\00", align 1
@.str12128 = private constant [14 x i8] c"model_version\00", align 1
@.str131 = private constant [13 x i8] c"klee_range.c\00", align 1
@.str1132 = private constant [14 x i8] c"invalid range\00", align 1
@.str2133 = private constant [5 x i8] c"user\00", align 1
@.str135 = private constant [22 x i8] c"klee_div_zero_check.c\00", align 1
@.str1136 = private constant [15 x i8] c"divide by zero\00", align 1
@.str2137 = private constant [8 x i8] c"div.err\00", align 1

@_ZL20__gthrw_pthread_oncePiPFvvE = alias weak i32 (i32*, void ()*)* @pthread_once
@_ZL27__gthrw_pthread_getspecificj = alias weak i8* (i32)* @pthread_getspecific
@_ZL27__gthrw_pthread_setspecificjPKv = alias weak i32 (i32, i8*)* @pthread_setspecific
@_ZL22__gthrw_pthread_createPmPK14pthread_attr_tPFPvS3_ES3_ = alias weak i32 (i64*, %union.pthread_attr_t*, i8* (i8*)*, i8*)* @pthread_create
@_ZL22__gthrw_pthread_cancelm = alias weak i32 (i64)* @pthread_cancel
@_ZL26__gthrw_pthread_mutex_lockP15pthread_mutex_t = alias weak i32 (%union.pthread_mutex_t*)* @pthread_mutex_lock
@_ZL29__gthrw_pthread_mutex_trylockP15pthread_mutex_t = alias weak i32 (%union.pthread_mutex_t*)* @pthread_mutex_trylock
@_ZL28__gthrw_pthread_mutex_unlockP15pthread_mutex_t = alias weak i32 (%union.pthread_mutex_t*)* @pthread_mutex_unlock
@_ZL26__gthrw_pthread_mutex_initP15pthread_mutex_tPK19pthread_mutexattr_t = alias weak i32 (%union.pthread_mutex_t*, %struct.a*)* @pthread_mutex_init
@_ZL26__gthrw_pthread_key_createPjPFvPvE = alias weak i32 (i32*, void (i8*)*)* @pthread_key_create
@_ZL26__gthrw_pthread_key_deletej = alias weak i32 (i32)* @pthread_key_delete
@_ZL30__gthrw_pthread_mutexattr_initP19pthread_mutexattr_t = alias weak i32 (%struct.a*)* @pthread_mutexattr_init
@_ZL33__gthrw_pthread_mutexattr_settypeP19pthread_mutexattr_ti = alias weak i32 (%struct.a*, i32)* @pthread_mutexattr_settype
@_ZL33__gthrw_pthread_mutexattr_destroyP19pthread_mutexattr_t = alias weak i32 (%struct.a*)* @pthread_mutexattr_destroy
@fgetc_unlocked = alias i32 (%struct.FILE*)* @__fgetc_unlocked
@getc_unlocked = alias i32 (%struct.FILE*)* @__fgetc_unlocked
@fgetc = alias i32 (%struct.FILE*)* @__fgetc_unlocked
@getc = alias i32 (%struct.FILE*)* @__fgetc_unlocked
@fputc_unlocked = alias i32 (i32, %struct.FILE*)* @__fputc_unlocked
@putc_unlocked = alias i32 (i32, %struct.FILE*)* @__fputc_unlocked
@fputc = alias i32 (i32, %struct.FILE*)* @__fputc_unlocked
@putc = alias i32 (i32, %struct.FILE*)* @__fputc_unlocked
@__progname = alias i8** @__uclibc_progname
@environ = alias weak i8*** @__environ
@fflush = alias i32 (%struct.FILE*)* @fflush_unlocked
@strcoll = alias i32 (i8*, i8*)* @strcmp
@fseeko = alias i32 (%struct.FILE*, i64, i32)* @fseek
@raise = alias weak i32 (i32)* @__raise
@sigaction = alias weak i32 (i32, %struct.sigaction*, %struct.sigaction*)* @__libc_sigaction
@__getdents = alias i64 (i32, %struct.dirent*, i64)* @getdents

define i32 @_ZN1a2mmEi(%struct.a* %this, i32 %a) align 2 {
entry:
  %this_addr = alloca %struct.a*, align 8
  %a_addr = alloca i32, align 4
  %retval = alloca i32
  %"alloca point" = bitcast i32 0 to i32
  store %struct.a* %this, %struct.a** %this_addr
  store i32 %a, i32* %a_addr
  %0 = load i32* %a_addr, align 4, !dbg !3620
  %1 = icmp sgt i32 %0, 0, !dbg !3620
  br i1 %1, label %bb, label %bb1, !dbg !3620

bb:                                               ; preds = %entry
  %2 = call %"struct.std::basic_ostream<char,std::char_traits<char> >"* @_ZStlsISt11char_traitsIcEERSt13basic_ostreamIcT_ES5_PKc(%"struct.std::basic_ostream<char,std::char_traits<char> >"* @_ZSt4cout, i8* getelementptr inbounds ([11 x i8]* @.str, i64 0, 
  br label %return, !dbg !3622

bb1:                                              ; preds = %entry
  %3 = call %"struct.std::basic_ostream<char,std::char_traits<char> >"* @_ZStlsISt11char_traitsIcEERSt13basic_ostreamIcT_ES5_PKc(%"struct.std::basic_ostream<char,std::char_traits<char> >"* @_ZSt4cout, i8* getelementptr inbounds ([8 x i8]* @.str1, i64 0, 
  br label %return, !dbg !3623

return:                                           ; preds = %bb, %bb1
  %retval3 = load i32* %retval, !dbg !3624
  ret i32 %retval3, !dbg !3624
}

define internal void @_GLOBAL__I__ZN1a2mmEi() {
entry:
  call void @_Z41__static_initialization_and_destruction_0ii(i32 1, i32 65535), !dbg !3625
  ret void, !dbg !3626
}

declare void @llvm.dbg.declare(metadata, metadata) nounwind readnone

declare %"struct.std::basic_ostream<char,std::char_traits<char> >"* @_ZStlsISt11char_traitsIcEERSt13basic_ostreamIcT_ES5_PKc(%"struct.std::basic_ostream<char,std::char_traits<char> >"*, i8*)

define internal void @_Z41__static_initialization_and_destruction_0ii(i32 %__initialize_p, i32 %__priority) {
entry:
  %__initialize_p_addr = alloca i32, align 4
  %__priority_addr = alloca i32, align 4
  %"alloca point" = bitcast i32 0 to i32
  store i32 %__initialize_p, i32* %__initialize_p_addr
  store i32 %__priority, i32* %__priority_addr
  %0 = load i32* %__initialize_p_addr, align 4, !dbg !3628
  %1 = icmp eq i32 %0, 1, !dbg !3628
  br i1 %1, label %bb, label %return, !dbg !3628

bb:                                               ; preds = %entry
  %2 = load i32* %__priority_addr, align 4, !dbg !3629
  %3 = icmp eq i32 %2, 65535, !dbg !3629
  br i1 %3, label %bb1, label %return, !dbg !3629

bb1:                                              ; preds = %bb
  call void @_ZNSt8ios_base4InitC1Ev(%"struct.std::ios_base::Init"* @_ZStL8__ioinit), !dbg !3631
  %4 = call i32 @__cxa_atexit(void (i8*)* @__tcf_0, i8* null, i8* bitcast (i8** @__dso_handle to i8*)) nounwind, !dbg !3631
  ret void, !dbg !3629

return:                                           ; preds = %entry, %bb
  ret void, !dbg !3629
}

declare void @_ZNSt8ios_base4InitC1Ev(%"struct.std::ios_base::Init"*)

define internal void @__tcf_0(i8* %unnamed_arg) {
entry:
  %unnamed_arg_addr = alloca i8*, align 8
  %"alloca point" = bitcast i32 0 to i32
  store i8* %unnamed_arg, i8** %unnamed_arg_addr
  call void @_ZNSt8ios_base4InitD1Ev(%"struct.std::ios_base::Init"* @_ZStL8__ioinit), !dbg !3632
  ret void, !dbg !3633
}

declare void @_ZNSt8ios_base4InitD1Ev(%"struct.std::ios_base::Init"*)

define i32 @__user_main(i32 %argc, i8** %argv) {
entry:
  %argcPtr = alloca i32
  %argvPtr = alloca i8**
  store i32 %argc, i32* %argcPtr
  store i8** %argv, i8*** %argvPtr
  call void @klee_init_env(i32* %argcPtr, i8*** %argvPtr)
  %newArgc = load i32* %argcPtr
  %newArgv = load i8*** %argvPtr
  %argc_addr = alloca i32, align 4
  %argv_addr = alloca i8**, align 8
  %retval = alloca i32
  %0 = alloca i32
  %b = alloca %struct.a
  %m = alloca i32
  %"alloca point" = bitcast i32 0 to i32
  store i32 %newArgc, i32* %argc_addr
  store i8** %newArgv, i8*** %argv_addr
  %m1 = bitcast i32* %m to i8*, !dbg !3635
  call void @klee_make_symbolic(i8* %m1, i64 4, i8* getelementptr inbounds ([2 x i8]* @.str2, i64 0, i64 0)), !dbg !3635
  %1 = load i32* %m, align 4, !dbg !3638
  %2 = call i32 @_ZN1a2mmEi(%struct.a* %b, i32 %1), !dbg !3638
  store i32 0, i32* %0, align 4, !dbg !3638
  %3 = load i32* %0, align 4, !dbg !3638
  store i32 %3, i32* %retval, align 4, !dbg !3638
  %retval2 = load i32* %retval, !dbg !3638
  ret i32 %retval2, !dbg !3638
}

declare void @klee_make_symbolic(i8*, i64, i8*)

declare extern_weak i32 @pthread_once(i32*, void ()*)

declare extern_weak i8* @pthread_getspecific(i32)

declare extern_weak i32 @pthread_setspecific(i32, i8*)

declare extern_weak i32 @pthread_create(i64*, %union.pthread_attr_t*, i8* (i8*)*, i8*)

declare extern_weak i32 @pthread_cancel(i64)

declare extern_weak i32 @pthread_mutex_lock(%union.pthread_mutex_t*)

declare extern_weak i32 @pthread_mutex_trylock(%union.pthread_mutex_t*)

declare extern_weak i32 @pthread_mutex_unlock(%union.pthread_mutex_t*)

declare extern_weak i32 @pthread_mutex_init(%union.pthread_mutex_t*, %struct.a*)

declare extern_weak i32 @pthread_key_create(i32*, void (i8*)*)

declare extern_weak i32 @pthread_key_delete(i32)

declare extern_weak i32 @pthread_mutexattr_init(%struct.a*)

declare extern_weak i32 @pthread_mutexattr_settype(%struct.a*, i32)

declare extern_weak i32 @pthread_mutexattr_destroy(%struct.a*)

define i32 @__cxa_atexit(void (i8*)* %func, i8* %arg, i8* %dso_handle) nounwind {
entry:
  %func_addr = alloca void (i8*)*, align 8
  %arg_addr = alloca i8*, align 8
  %dso_handle_addr = alloca i8*, align 8
  %retval = alloca i32
  %0 = alloca i32
  %efp = alloca %struct.exit_function*
  %"alloca point" = bitcast i32 0 to i32
  store void (i8*)* %func, void (i8*)** %func_addr
  store i8* %arg, i8** %arg_addr
  store i8* %dso_handle, i8** %dso_handle_addr
  %1 = load void (i8*)** %func_addr, align 8, !dbg !3639
  %2 = icmp eq void (i8*)* %1, null, !dbg !3639
  br i1 %2, label %bb, label %bb1, !dbg !3639

bb:                                               ; preds = %entry
  store i32 0, i32* %0, align 4, !dbg !3641
  br label %bb4, !dbg !3641

bb1:                                              ; preds = %entry
  %3 = call %struct.exit_function* @__new_exitfn() nounwind, !dbg !3642
  store %struct.exit_function* %3, %struct.exit_function** %efp, align 8, !dbg !3642
  %4 = load %struct.exit_function** %efp, align 8, !dbg !3643
  %5 = icmp eq %struct.exit_function* %4, null, !dbg !3643
  br i1 %5, label %bb2, label %bb3, !dbg !3643

bb2:                                              ; preds = %bb1
  store i32 -1, i32* %0, align 4, !dbg !3644
  br label %bb4, !dbg !3644

bb3:                                              ; preds = %bb1
  %6 = load %struct.exit_function** %efp, align 8, !dbg !3645
  %7 = getelementptr inbounds %struct.exit_function* %6, i32 0, i32 1, !dbg !3645
  %8 = getelementptr inbounds %union.anon* %7, i32 0, i32 0, !dbg !3645
  %9 = getelementptr inbounds %1* %8, i32 0, i32 0, !dbg !3645
  %10 = load void (i8*)** %func_addr, align 8, !dbg !3645
  store void (i8*)* %10, void (i8*)** %9, align 8, !dbg !3645
  %11 = load %struct.exit_function** %efp, align 8, !dbg !3646
  %12 = getelementptr inbounds %struct.exit_function* %11, i32 0, i32 1, !dbg !3646
  %13 = getelementptr inbounds %union.anon* %12, i32 0, i32 0, !dbg !3646
  %14 = getelementptr inbounds %1* %13, i32 0, i32 1, !dbg !3646
  %15 = load i8** %arg_addr, align 8, !dbg !3646
  store i8* %15, i8** %14, align 8, !dbg !3646
  %16 = load %struct.exit_function** %efp, align 8, !dbg !3647
  %17 = getelementptr inbounds %struct.exit_function* %16, i32 0, i32 1, !dbg !3647
  %18 = getelementptr inbounds %union.anon* %17, i32 0, i32 0, !dbg !3647
  %19 = getelementptr inbounds %1* %18, i32 0, i32 2, !dbg !3647
  %20 = load i8** %dso_handle_addr, align 8, !dbg !3647
  store i8* %20, i8** %19, align 8, !dbg !3647
  %21 = load %struct.exit_function** %efp, align 8, !dbg !3648
  %22 = getelementptr inbounds %struct.exit_function* %21, i32 0, i32 0, !dbg !3648
  store i64 3, i64* %22, align 8, !dbg !3648
  store i32 0, i32* %0, align 4, !dbg !3649
  br label %bb4, !dbg !3649

bb4:                                              ; preds = %bb3, %bb2, %bb
  %23 = load i32* %0, align 4, !dbg !3641
  store i32 %23, i32* %retval, align 4, !dbg !3641
  %retval5 = load i32* %retval, !dbg !3641
  ret i32 %retval5, !dbg !3641
}

define i32 @__fgetc_unlocked(%struct.FILE* %stream) nounwind {
entry:
  %stream_addr = alloca %struct.FILE*, align 8
  %retval = alloca i32
  %0 = alloca i32
  %uc = alloca i8
  %uc16 = alloca i8
  %"alloca point" = bitcast i32 0 to i32
  store %struct.FILE* %stream, %struct.FILE** %stream_addr
  %1 = load %struct.FILE** %stream_addr, align 8, !dbg !3650
  %2 = getelementptr inbounds %struct.FILE* %1, i32 0, i32 5, !dbg !3650
  %3 = load i8** %2, align 8, !dbg !3650
  %4 = load %struct.FILE** %stream_addr, align 8, !dbg !3650
  %5 = getelementptr inbounds %struct.FILE* %4, i32 0, i32 7, !dbg !3650
  %6 = load i8** %5, align 8, !dbg !3650
  %7 = icmp ult i8* %3, %6, !dbg !3650
  %8 = load %struct.FILE** %stream_addr, align 8, !dbg !3652
  br i1 %7, label %bb, label %bb1, !dbg !3650

bb:                                               ; preds = %entry
  %9 = getelementptr inbounds %struct.FILE* %8, i32 0, i32 5, !dbg !3652
  %10 = load i8** %9, align 8, !dbg !3652
  %11 = load i8* %10, align 1, !dbg !3652
  %12 = zext i8 %11 to i32, !dbg !3652
  store i32 %12, i32* %0, align 4, !dbg !3652
  %13 = getelementptr inbounds i8* %10, i64 1, !dbg !3652
  %14 = load %struct.FILE** %stream_addr, align 8, !dbg !3652
  %15 = getelementptr inbounds %struct.FILE* %14, i32 0, i32 5, !dbg !3652
  store i8* %13, i8** %15, align 8, !dbg !3652
  br label %bb19, !dbg !3652

bb1:                                              ; preds = %entry
  %16 = getelementptr inbounds %struct.FILE* %8, i32 0, i32 0, !dbg !3653
  %17 = load i16* %16, align 8, !dbg !3653
  %18 = zext i16 %17 to i32, !dbg !3653
  %19 = and i32 %18, 131, !dbg !3653
  %20 = icmp ugt i32 %19, 128, !dbg !3653
  br i1 %20, label %bb3, label %bb2, !dbg !3653

bb2:                                              ; preds = %bb1
  %21 = load %struct.FILE** %stream_addr, align 8, !dbg !3653
  %22 = call i32 @__stdio_trans2r_o(%struct.FILE* noalias %21, i32 128) nounwind, !dbg !3653
  %23 = icmp eq i32 %22, 0, !dbg !3653
  br i1 %23, label %bb3, label %bb18, !dbg !3653

bb3:                                              ; preds = %bb2, %bb1
  %24 = load %struct.FILE** %stream_addr, align 8, !dbg !3654
  %25 = getelementptr inbounds %struct.FILE* %24, i32 0, i32 0, !dbg !3654
  %26 = load i16* %25, align 8, !dbg !3654
  %27 = zext i16 %26 to i32, !dbg !3654
  %28 = and i32 %27, 2, !dbg !3654
  %29 = icmp ne i32 %28, 0, !dbg !3654
  %30 = load %struct.FILE** %stream_addr, align 8, !dbg !3655
  br i1 %29, label %bb4, label %bb5, !dbg !3654

bb4:                                              ; preds = %bb3
  %31 = getelementptr inbounds %struct.FILE* %30, i32 0, i32 0, !dbg !3655
  %32 = load i16* %31, align 8, !dbg !3655
  %33 = zext i16 %32 to i32, !dbg !3655
  %34 = and i32 %33, 1, !dbg !3655
  %35 = load %struct.FILE** %stream_addr, align 8, !dbg !3655
  %36 = getelementptr inbounds %struct.FILE* %35, i32 0, i32 10, !dbg !3655
  %37 = sext i32 %34 to i64, !dbg !3655
  %38 = getelementptr inbounds [2 x i32]* %36, i64 0, i64 %37, !dbg !3655
  %39 = load i32* %38, align 4, !dbg !3655
  %40 = trunc i32 %39 to i8, !dbg !3655
  store i8 %40, i8* %uc, align 1, !dbg !3655
  %41 = sub i16 %32, 1, !dbg !3655
  %42 = load %struct.FILE** %stream_addr, align 8, !dbg !3655
  %43 = getelementptr inbounds %struct.FILE* %42, i32 0, i32 0, !dbg !3655
  store i16 %41, i16* %43, align 8, !dbg !3655
  %44 = load %struct.FILE** %stream_addr, align 8, !dbg !3657
  %45 = getelementptr inbounds %struct.FILE* %44, i32 0, i32 10, !dbg !3657
  %46 = getelementptr inbounds [2 x i32]* %45, i64 0, i64 1, !dbg !3657
  store i32 0, i32* %46, align 4, !dbg !3657
  %47 = load i8* %uc, align 1, !dbg !3658
  %48 = zext i8 %47 to i32, !dbg !3658
  store i32 %48, i32* %0, align 4, !dbg !3658
  br label %bb19, !dbg !3658

bb5:                                              ; preds = %bb3
  %49 = getelementptr inbounds %struct.FILE* %30, i32 0, i32 6, !dbg !3659
  %50 = load i8** %49, align 8, !dbg !3659
  %51 = load %struct.FILE** %stream_addr, align 8, !dbg !3659
  %52 = getelementptr inbounds %struct.FILE* %51, i32 0, i32 5, !dbg !3659
  %53 = load i8** %52, align 8, !dbg !3659
  %54 = icmp ne i8* %50, %53, !dbg !3659
  %55 = load %struct.FILE** %stream_addr, align 8, !dbg !3660
  br i1 %54, label %bb6, label %bb7, !dbg !3659

bb6:                                              ; preds = %bb5
  %56 = getelementptr inbounds %struct.FILE* %55, i32 0, i32 5, !dbg !3660
  %57 = load i8** %56, align 8, !dbg !3660
  %58 = load i8* %57, align 1, !dbg !3660
  %59 = zext i8 %58 to i32, !dbg !3660
  store i32 %59, i32* %0, align 4, !dbg !3660
  %60 = getelementptr inbounds i8* %57, i64 1, !dbg !3660
  %61 = load %struct.FILE** %stream_addr, align 8, !dbg !3660
  %62 = getelementptr inbounds %struct.FILE* %61, i32 0, i32 5, !dbg !3660
  store i8* %60, i8** %62, align 8, !dbg !3660
  br label %bb19, !dbg !3660

bb7:                                              ; preds = %bb5
  %63 = getelementptr inbounds %struct.FILE* %55, i32 0, i32 2, !dbg !3661
  %64 = load i32* %63, align 4, !dbg !3661
  %65 = icmp eq i32 %64, -2, !dbg !3661
  %66 = load %struct.FILE** %stream_addr, align 8, !dbg !3662
  %67 = getelementptr inbounds %struct.FILE* %66, i32 0, i32 0, !dbg !3662
  %68 = load i16* %67, align 8, !dbg !3662
  br i1 %65, label %bb8, label %bb9, !dbg !3661

bb8:                                              ; preds = %bb7
  %69 = or i16 %68, 4, !dbg !3662
  %70 = load %struct.FILE** %stream_addr, align 8, !dbg !3662
  %71 = getelementptr inbounds %struct.FILE* %70, i32 0, i32 0, !dbg !3662
  store i16 %69, i16* %71, align 8, !dbg !3662
  store i32 -1, i32* %0, align 4, !dbg !3663
  br label %bb19, !dbg !3663

bb9:                                              ; preds = %bb7
  %72 = zext i16 %68 to i32, !dbg !3664
  %73 = and i32 %72, 768, !dbg !3664
  %74 = icmp ne i32 %73, 0, !dbg !3664
  br i1 %74, label %bb10, label %bb11, !dbg !3664

bb10:                                             ; preds = %bb9
  %75 = call i32 @fflush_unlocked(%struct.FILE* bitcast (%struct.FILE** @_stdio_openlist to %struct.FILE*)) nounwind, !dbg !3665
  br label %bb11, !dbg !3665

bb11:                                             ; preds = %bb10, %bb9
  %76 = load %struct.FILE** %stream_addr, align 8, !dbg !3666
  %77 = getelementptr inbounds %struct.FILE* %76, i32 0, i32 4, !dbg !3666
  %78 = load i8** %77, align 8, !dbg !3666
  %79 = load %struct.FILE** %stream_addr, align 8, !dbg !3666
  %80 = getelementptr inbounds %struct.FILE* %79, i32 0, i32 3, !dbg !3666
  %81 = load i8** %80, align 8, !dbg !3666
  %82 = icmp ne i8* %78, %81, !dbg !3666
  %83 = load %struct.FILE** %stream_addr, align 8, !dbg !3667
  br i1 %82, label %bb12, label %bb15, !dbg !3666

bb12:                                             ; preds = %bb11
  %84 = getelementptr inbounds %struct.FILE* %83, i32 0, i32 3, !dbg !3667
  %85 = load i8** %84, align 8, !dbg !3667
  %86 = load %struct.FILE** %stream_addr, align 8, !dbg !3667
  %87 = getelementptr inbounds %struct.FILE* %86, i32 0, i32 7, !dbg !3667
  store i8* %85, i8** %87, align 8, !dbg !3667
  %88 = load %struct.FILE** %stream_addr, align 8, !dbg !3668
  %89 = call i64 @__stdio_rfill(%struct.FILE* noalias %88) nounwind, !dbg !3668
  %90 = icmp ne i64 %89, 0, !dbg !3668
  br i1 %90, label %bb13, label %bb18, !dbg !3668

bb13:                                             ; preds = %bb12
  %91 = load %struct.FILE** %stream_addr, align 8, !dbg !3669
  %92 = getelementptr inbounds %struct.FILE* %91, i32 0, i32 6, !dbg !3669
  %93 = load i8** %92, align 8, !dbg !3669
  %94 = load %struct.FILE** %stream_addr, align 8, !dbg !3669
  %95 = getelementptr inbounds %struct.FILE* %94, i32 0, i32 7, !dbg !3669
  store i8* %93, i8** %95, align 8, !dbg !3669
  %96 = load %struct.FILE** %stream_addr, align 8, !dbg !3670
  %97 = getelementptr inbounds %struct.FILE* %96, i32 0, i32 5, !dbg !3670
  %98 = load i8** %97, align 8, !dbg !3670
  %99 = load i8* %98, align 1, !dbg !3670
  %100 = zext i8 %99 to i32, !dbg !3670
  store i32 %100, i32* %0, align 4, !dbg !3670
  %101 = getelementptr inbounds i8* %98, i64 1, !dbg !3670
  %102 = load %struct.FILE** %stream_addr, align 8, !dbg !3670
  %103 = getelementptr inbounds %struct.FILE* %102, i32 0, i32 5, !dbg !3670
  store i8* %101, i8** %103, align 8, !dbg !3670
  br label %bb19, !dbg !3670

bb15:                                             ; preds = %bb11
  %104 = call i64 @__stdio_READ(%struct.FILE* %83, i8* %uc16, i64 1) nounwind, !dbg !3671
  %105 = icmp ne i64 %104, 0, !dbg !3671
  br i1 %105, label %bb17, label %bb18, !dbg !3671

bb17:                                             ; preds = %bb15
  %106 = load i8* %uc16, align 1, !dbg !3673
  %107 = zext i8 %106 to i32, !dbg !3673
  store i32 %107, i32* %0, align 4, !dbg !3673
  br label %bb19, !dbg !3673

bb18:                                             ; preds = %bb12, %bb15, %bb2
  store i32 -1, i32* %0, align 4, !dbg !3674
  br label %bb19, !dbg !3674

bb19:                                             ; preds = %bb18, %bb17, %bb13, %bb8, %bb6, %bb4, %bb
  %108 = load i32* %0, align 4, !dbg !3652
  store i32 %108, i32* %retval, align 4, !dbg !3652
  %retval20 = load i32* %retval, !dbg !3652
  ret i32 %retval20, !dbg !3652
}

define i32 @__fputc_unlocked(i32 %c, %struct.FILE* %stream) nounwind {
entry:
  %c_addr = alloca i32, align 4
  %stream_addr = alloca %struct.FILE*, align 8
  %retval = alloca i32
  %0 = alloca i32
  %uc = alloca i8
  %"alloca point" = bitcast i32 0 to i32
  store i32 %c, i32* %c_addr
  store %struct.FILE* %stream, %struct.FILE** %stream_addr
  %1 = load %struct.FILE** %stream_addr, align 8, !dbg !3675
  %2 = getelementptr inbounds %struct.FILE* %1, i32 0, i32 5, !dbg !3675
  %3 = load i8** %2, align 8, !dbg !3675
  %4 = load %struct.FILE** %stream_addr, align 8, !dbg !3675
  %5 = getelementptr inbounds %struct.FILE* %4, i32 0, i32 8, !dbg !3675
  %6 = load i8** %5, align 8, !dbg !3675
  %7 = icmp ult i8* %3, %6, !dbg !3675
  %8 = load %struct.FILE** %stream_addr, align 8, !dbg !3677
  br i1 %7, label %bb, label %bb1, !dbg !3675

bb:                                               ; preds = %entry
  %9 = getelementptr inbounds %struct.FILE* %8, i32 0, i32 5, !dbg !3677
  %10 = load i8** %9, align 8, !dbg !3677
  %11 = load i32* %c_addr, align 4, !dbg !3677
  %12 = trunc i32 %11 to i8, !dbg !3677
  store i8 %12, i8* %10, align 1, !dbg !3677
  %13 = getelementptr inbounds i8* %10, i64 1, !dbg !3677
  %14 = load %struct.FILE** %stream_addr, align 8, !dbg !3677
  %15 = getelementptr inbounds %struct.FILE* %14, i32 0, i32 5, !dbg !3677
  store i8* %13, i8** %15, align 8, !dbg !3677
  %16 = load i32* %c_addr, align 4, !dbg !3678
  %17 = trunc i32 %16 to i8, !dbg !3678
  %18 = zext i8 %17 to i32, !dbg !3678
  store i32 %18, i32* %0, align 4, !dbg !3678
  br label %bb15, !dbg !3678

bb1:                                              ; preds = %entry
  %19 = getelementptr inbounds %struct.FILE* %8, i32 0, i32 0, !dbg !3679
  %20 = load i16* %19, align 8, !dbg !3679
  %21 = zext i16 %20 to i32, !dbg !3679
  %22 = and i32 %21, 192, !dbg !3679
  %23 = icmp eq i32 %22, 192, !dbg !3679
  br i1 %23, label %bb3, label %bb2, !dbg !3679

bb2:                                              ; preds = %bb1
  %24 = load %struct.FILE** %stream_addr, align 8, !dbg !3679
  %25 = call i32 @__stdio_trans2w_o(%struct.FILE* noalias %24, i32 128) nounwind, !dbg !3679
  %26 = icmp eq i32 %25, 0, !dbg !3679
  br i1 %26, label %bb3, label %BAD, !dbg !3679

bb3:                                              ; preds = %bb2, %bb1
  %27 = load %struct.FILE** %stream_addr, align 8, !dbg !3680
  %28 = getelementptr inbounds %struct.FILE* %27, i32 0, i32 2, !dbg !3680
  %29 = load i32* %28, align 4, !dbg !3680
  %30 = icmp eq i32 %29, -2, !dbg !3680
  br i1 %30, label %bb4, label %bb5, !dbg !3680

bb4:                                              ; preds = %bb3
  %31 = load i32* %c_addr, align 4, !dbg !3681
  %32 = trunc i32 %31 to i8, !dbg !3681
  %33 = zext i8 %32 to i32, !dbg !3681
  store i32 %33, i32* %0, align 4, !dbg !3681
  br label %bb15, !dbg !3681

bb5:                                              ; preds = %bb3
  %34 = load %struct.FILE** %stream_addr, align 8, !dbg !3682
  %35 = getelementptr inbounds %struct.FILE* %34, i32 0, i32 4, !dbg !3682
  %36 = load i8** %35, align 8, !dbg !3682
  %37 = load %struct.FILE** %stream_addr, align 8, !dbg !3682
  %38 = getelementptr inbounds %struct.FILE* %37, i32 0, i32 3, !dbg !3682
  %39 = load i8** %38, align 8, !dbg !3682
  %40 = icmp ne i8* %36, %39, !dbg !3682
  br i1 %40, label %bb6, label %bb13, !dbg !3682

bb6:                                              ; preds = %bb5
  %41 = load %struct.FILE** %stream_addr, align 8, !dbg !3683
  %42 = getelementptr inbounds %struct.FILE* %41, i32 0, i32 4, !dbg !3683
  %43 = load i8** %42, align 8, !dbg !3683
  %44 = load %struct.FILE** %stream_addr, align 8, !dbg !3683
  %45 = getelementptr inbounds %struct.FILE* %44, i32 0, i32 5, !dbg !3683
  %46 = load i8** %45, align 8, !dbg !3683
  %47 = icmp eq i8* %43, %46, !dbg !3683
  br i1 %47, label %bb7, label %bb8, !dbg !3683

bb7:                                              ; preds = %bb6
  %48 = load %struct.FILE** %stream_addr, align 8, !dbg !3683
  %49 = call i64 @__stdio_wcommit(%struct.FILE* noalias %48) nounwind, !dbg !3683
  %50 = icmp ne i64 %49, 0, !dbg !3683
  br i1 %50, label %BAD, label %bb8, !dbg !3683

bb8:                                              ; preds = %bb7, %bb6
  %51 = load %struct.FILE** %stream_addr, align 8, !dbg !3684
  %52 = getelementptr inbounds %struct.FILE* %51, i32 0, i32 5, !dbg !3684
  %53 = load i8** %52, align 8, !dbg !3684
  %54 = load i32* %c_addr, align 4, !dbg !3684
  %55 = trunc i32 %54 to i8, !dbg !3684
  store i8 %55, i8* %53, align 1, !dbg !3684
  %56 = getelementptr inbounds i8* %53, i64 1, !dbg !3684
  %57 = load %struct.FILE** %stream_addr, align 8, !dbg !3684
  %58 = getelementptr inbounds %struct.FILE* %57, i32 0, i32 5, !dbg !3684
  store i8* %56, i8** %58, align 8, !dbg !3684
  %59 = load %struct.FILE** %stream_addr, align 8, !dbg !3685
  %60 = getelementptr inbounds %struct.FILE* %59, i32 0, i32 0, !dbg !3685
  %61 = load i16* %60, align 8, !dbg !3685
  %62 = zext i16 %61 to i32, !dbg !3685
  %63 = and i32 %62, 256, !dbg !3685
  %64 = icmp ne i32 %63, 0, !dbg !3685
  br i1 %64, label %bb9, label %bb14, !dbg !3685

bb9:                                              ; preds = %bb8
  %65 = load i32* %c_addr, align 4, !dbg !3686
  %66 = trunc i32 %65 to i8, !dbg !3686
  %67 = icmp eq i8 %66, 10, !dbg !3686
  br i1 %67, label %bb10, label %bb14, !dbg !3686

bb10:                                             ; preds = %bb9
  %68 = load %struct.FILE** %stream_addr, align 8, !dbg !3686
  %69 = call i64 @__stdio_wcommit(%struct.FILE* noalias %68) nounwind, !dbg !3686
  %70 = icmp ne i64 %69, 0, !dbg !3686
  br i1 %70, label %bb11, label %bb14, !dbg !3686

bb11:                                             ; preds = %bb10
  %71 = load %struct.FILE** %stream_addr, align 8, !dbg !3687
  %72 = getelementptr inbounds %struct.FILE* %71, i32 0, i32 5, !dbg !3687
  %73 = load i8** %72, align 8, !dbg !3687
  %74 = getelementptr inbounds i8* %73, i64 -1, !dbg !3687
  %75 = load %struct.FILE** %stream_addr, align 8, !dbg !3687
  %76 = getelementptr inbounds %struct.FILE* %75, i32 0, i32 5, !dbg !3687
  store i8* %74, i8** %76, align 8, !dbg !3687
  br label %BAD, !dbg !3687

bb13:                                             ; preds = %bb5
  %77 = load i32* %c_addr, align 4, !dbg !3688
  %78 = trunc i32 %77 to i8, !dbg !3688
  store i8 %78, i8* %uc, align 1, !dbg !3688
  %79 = load %struct.FILE** %stream_addr, align 8, !dbg !3690
  %80 = call i64 @__stdio_WRITE(%struct.FILE* %79, i8* %uc, i64 1) nounwind, !dbg !3690
  %81 = icmp eq i64 %80, 0, !dbg !3690
  br i1 %81, label %BAD, label %bb14, !dbg !3690

bb14:                                             ; preds = %bb8, %bb9, %bb10, %bb13
  %82 = load i32* %c_addr, align 4, !dbg !3691
  %83 = trunc i32 %82 to i8, !dbg !3691
  %84 = zext i8 %83 to i32, !dbg !3691
  store i32 %84, i32* %0, align 4, !dbg !3691
  br label %bb15, !dbg !3691

BAD:                                              ; preds = %bb13, %bb11, %bb7, %bb2
  store i32 -1, i32* %0, align 4, !dbg !3692
  br label %bb15, !dbg !3692

bb15:                                             ; preds = %BAD, %bb14, %bb4, %bb
  %85 = load i32* %0, align 4, !dbg !3678
  store i32 %85, i32* %retval, align 4, !dbg !3678
  %retval16 = load i32* %retval, !dbg !3678
  ret i32 %retval16, !dbg !3678
}

define internal void @__check_one_fd(i32 %fd, i32 %mode) nounwind {
entry:
  %fd_addr = alloca i32, align 4
  %mode_addr = alloca i32, align 4
  %iftmp.0 = alloca i32
  %st = alloca %struct.stat
  %nullfd = alloca i32
  %"alloca point" = bitcast i32 0 to i32
  store i32 %fd, i32* %fd_addr
  store i32 %mode, i32* %mode_addr
  %0 = load i32* %fd_addr, align 4, !dbg !3693
  %1 = call i32 (i32, i32, ...)* @fcntl(i32 %0, i32 1) nounwind, !dbg !3693
  %2 = icmp ne i32 %1, -1, !dbg !3693
  br i1 %2, label %bb2, label %bb, !dbg !3693

bb:                                               ; preds = %entry
  %3 = call i32* @__errno_location() nounwind readnone, !dbg !3693
  %4 = load i32* %3, align 4, !dbg !3693
  %5 = icmp ne i32 %4, 9, !dbg !3693
  br i1 %5, label %bb2, label %bb1, !dbg !3693

bb1:                                              ; preds = %bb
  store i32 1, i32* %iftmp.0, align 4, !dbg !3693
  br label %bb3, !dbg !3693

bb2:                                              ; preds = %bb, %entry
  store i32 0, i32* %iftmp.0, align 4, !dbg !3693
  br label %bb3, !dbg !3693

bb3:                                              ; preds = %bb2, %bb1
  %6 = load i32* %iftmp.0, align 4, !dbg !3693
  %7 = sext i32 %6 to i64, !dbg !3693
  %8 = icmp ne i64 %7, 0, !dbg !3693
  br i1 %8, label %bb4, label %return, !dbg !3693

bb4:                                              ; preds = %bb3
  %9 = load i32* %mode_addr, align 4, !dbg !3695
  %10 = call i32 (i8*, i32, ...)* @open(i8* getelementptr inbounds ([10 x i8]* @.str4, i64 0, i64 0), i32 %9) nounwind, !dbg !3695
  store i32 %10, i32* %nullfd, align 4, !dbg !3695
  %11 = load i32* %nullfd, align 4, !dbg !3697
  %12 = load i32* %fd_addr, align 4, !dbg !3697
  %13 = icmp ne i32 %11, %12, !dbg !3697
  br i1 %13, label %bb8, label %bb5, !dbg !3697

bb5:                                              ; preds = %bb4
  %14 = load i32* %fd_addr, align 4, !dbg !3697
  %15 = call i32 bitcast (i32 (i32, %struct.stat64*)* @fstat to i32 (i32, %struct.stat*)*)(i32 %14, %struct.stat* %st) nounwind, !dbg !3697
  %16 = icmp ne i32 %15, 0, !dbg !3697
  br i1 %16, label %bb8, label %bb6, !dbg !3697

bb6:                                              ; preds = %bb5
  %17 = getelementptr inbounds %struct.stat* %st, i32 0, i32 3, !dbg !3697
  %18 = load i32* %17, align 8, !dbg !3697
  %19 = and i32 %18, 61440, !dbg !3697
  %20 = icmp ne i32 %19, 8192, !dbg !3697
  br i1 %20, label %bb8, label %bb7, !dbg !3697

bb7:                                              ; preds = %bb6
  %21 = getelementptr inbounds %struct.stat* %st, i32 0, i32 7, !dbg !3697
  %22 = load i64* %21, align 8, !dbg !3697
  %23 = call i64 @gnu_dev_makedev58(i32 1, i32 3) nounwind, !dbg !3697
  %24 = icmp ne i64 %22, %23, !dbg !3697
  br i1 %24, label %bb8, label %return, !dbg !3697

bb8:                                              ; preds = %bb7, %bb6, %bb5, %bb4
  call void @abort() noreturn nounwind, !dbg !3698
  unreachable, !dbg !3698

return:                                           ; preds = %bb3, %bb7
  ret void, !dbg !3699
}

define internal i64 @gnu_dev_makedev58(i32 %__major, i32 %__minor) nounwind inlinehint {
entry:
  %__major_addr = alloca i32, align 4
  %__minor_addr = alloca i32, align 4
  %retval = alloca i64
  %0 = alloca i64
  %"alloca point" = bitcast i32 0 to i32
  store i32 %__major, i32* %__major_addr
  store i32 %__minor, i32* %__minor_addr
  %1 = load i32* %__minor_addr, align 4, !dbg !3700
  %2 = and i32 %1, 255, !dbg !3700
  %3 = load i32* %__major_addr, align 4, !dbg !3700
  %4 = and i32 %3, 4095, !dbg !3700
  %5 = shl i32 %4, 8, !dbg !3700
  %6 = or i32 %2, %5, !dbg !3700
  %7 = zext i32 %6 to i64, !dbg !3700
  %8 = load i32* %__minor_addr, align 4, !dbg !3700
  %9 = zext i32 %8 to i64, !dbg !3700
  %10 = and i64 %9, 4294967040, !dbg !3700
  %11 = shl i64 %10, 12, !dbg !3700
  %12 = or i64 %7, %11, !dbg !3700
  %13 = load i32* %__major_addr, align 4, !dbg !3700
  %14 = zext i32 %13 to i64, !dbg !3700
  %15 = and i64 %14, 4294963200, !dbg !3700
  %16 = shl i64 %15, 32, !dbg !3700
  %17 = or i64 %12, %16, !dbg !3700
  store i64 %17, i64* %0, align 8, !dbg !3700
  %18 = load i64* %0, align 8, !dbg !3700
  store i64 %18, i64* %retval, align 8, !dbg !3700
  %retval1 = load i64* %retval, !dbg !3700
  ret i64 %retval1, !dbg !3700
}

define internal i32 @__check_suid() nounwind {
entry:
  %retval = alloca i32
  %0 = alloca i32
  %uid = alloca i32
  %euid = alloca i32
  %gid = alloca i32
  %egid = alloca i32
  %"alloca point" = bitcast i32 0 to i32
  %1 = call i32 @getuid() nounwind, !dbg !3702
  store i32 %1, i32* %uid, align 4, !dbg !3702
  %2 = call i32 @geteuid() nounwind, !dbg !3704
  store i32 %2, i32* %euid, align 4, !dbg !3704
  %3 = call i32 @getgid() nounwind, !dbg !3705
  store i32 %3, i32* %gid, align 4, !dbg !3705
  %4 = call i32 @getegid() nounwind, !dbg !3706
  store i32 %4, i32* %egid, align 4, !dbg !3706
  %5 = load i32* %uid, align 4, !dbg !3707
  %6 = load i32* %euid, align 4, !dbg !3707
  %7 = icmp eq i32 %5, %6, !dbg !3707
  br i1 %7, label %bb, label %bb2, !dbg !3707

bb:                                               ; preds = %entry
  %8 = load i32* %gid, align 4, !dbg !3707
  %9 = load i32* %egid, align 4, !dbg !3707
  %10 = icmp eq i32 %8, %9, !dbg !3707
  br i1 %10, label %bb1, label %bb2, !dbg !3707

bb1:                                              ; preds = %bb
  store i32 0, i32* %0, align 4, !dbg !3708
  br label %bb3, !dbg !3708

bb2:                                              ; preds = %bb, %entry
  store i32 1, i32* %0, align 4, !dbg !3709
  br label %bb3, !dbg !3709

bb3:                                              ; preds = %bb2, %bb1
  %11 = load i32* %0, align 4, !dbg !3708
  store i32 %11, i32* %retval, align 4, !dbg !3708
  %retval4 = load i32* %retval, !dbg !3708
  ret i32 %retval4, !dbg !3708
}

declare i32 @getuid() nounwind

declare i32 @geteuid() nounwind

declare i32 @getgid() nounwind

declare i32 @getegid() nounwind

define void @__uClibc_init() nounwind {
entry:
  %0 = load i32* @been_there_done_that.2846, align 4, !dbg !3710
  %1 = icmp ne i32 %0, 0, !dbg !3710
  br i1 %1, label %return, label %bb, !dbg !3710

bb:                                               ; preds = %entry
  %2 = load i32* @been_there_done_that.2846, align 4, !dbg !3712
  %3 = add nsw i32 %2, 1, !dbg !3712
  store i32 %3, i32* @been_there_done_that.2846, align 4, !dbg !3712
  store i64 4096, i64* @__pagesize, align 8, !dbg !3713
  call void @_stdio_init() nounwind, !dbg !3714
  ret void, !dbg !3715

return:                                           ; preds = %entry
  ret void, !dbg !3715
}

define void @__uClibc_fini() nounwind {
entry:
  %0 = load void ()** @__app_fini, align 8, !dbg !3716
  %1 = icmp ne void ()* %0, null, !dbg !3716
  br i1 %1, label %bb, label %bb1, !dbg !3716

bb:                                               ; preds = %entry
  %2 = load void ()** @__app_fini, align 8, !dbg !3718
  call void %2() nounwind, !dbg !3718
  br label %bb1, !dbg !3718

bb1:                                              ; preds = %bb, %entry
  %3 = load void ()** @__rtld_fini, align 8, !dbg !3719
  %4 = icmp ne void ()* %3, null, !dbg !3719
  br i1 %4, label %bb2, label %return, !dbg !3719

bb2:                                              ; preds = %bb1
  %5 = load void ()** @__rtld_fini, align 8, !dbg !3720
  call void %5() nounwind, !dbg !3720
  ret void, !dbg !3721

return:                                           ; preds = %bb1
  ret void, !dbg !3721
}

define void @__uClibc_main(i32 (i32, i8**, i8**)* %main, i32 %argc, i8** %argv, void ()* %app_init, void ()* %app_fini, void ()* %rtld_fini, i8* %stack_end) noreturn nounwind {
entry:
  %main_addr = alloca i32 (i32, i8**, i8**)*, align 8
  %argc_addr = alloca i32, align 4
  %argv_addr = alloca i8**, align 8
  %app_init_addr = alloca void ()*, align 8
  %app_fini_addr = alloca void ()*, align 8
  %rtld_fini_addr = alloca void ()*, align 8
  %stack_end_addr = alloca i8*, align 8
  %iftmp.10 = alloca i64
  %aux_dat = alloca i64*
  %auxvt = alloca [15 x %struct.Elf64_auxv_t]
  %auxv_entry = alloca %struct.Elf64_auxv_t*
  %"alloca point" = bitcast i32 0 to i32
  store i32 (i32, i8**, i8**)* %main, i32 (i32, i8**, i8**)** %main_addr
  store i32 %argc, i32* %argc_addr
  store i8** %argv, i8*** %argv_addr
  store void ()* %app_init, void ()** %app_init_addr
  store void ()* %app_fini, void ()** %app_fini_addr
  store void ()* %rtld_fini, void ()** %rtld_fini_addr
  store i8* %stack_end, i8** %stack_end_addr
  %0 = load i8** %stack_end_addr, align 8, !dbg !3722
  store i8* %0, i8** @__libc_stack_end, align 8, !dbg !3722
  %1 = load void ()** %rtld_fini_addr, align 8, !dbg !3724
  store void ()* %1, void ()** @__rtld_fini, align 8, !dbg !3724
  %2 = load i32* %argc_addr, align 4, !dbg !3725
  %3 = add nsw i32 %2, 1, !dbg !3725
  %4 = load i8*** %argv_addr, align 8, !dbg !3725
  %5 = sext i32 %3 to i64, !dbg !3725
  %6 = getelementptr inbounds i8** %4, i64 %5, !dbg !3725
  store i8** %6, i8*** @__environ, align 8, !dbg !3725
  %7 = load i8*** %argv_addr, align 8, !dbg !3726
  %8 = load i8** %7, align 8, !dbg !3726
  %9 = load i8*** @__environ, align 8, !dbg !3726
  %10 = bitcast i8** %9 to i8*, !dbg !3726
  %11 = icmp eq i8* %8, %10, !dbg !3726
  br i1 %11, label %bb, label %bb1, !dbg !3726

bb:                                               ; preds = %entry
  %12 = load i8*** %argv_addr, align 8, !dbg !3727
  %13 = load i32* %argc_addr, align 4, !dbg !3727
  %14 = sext i32 %13 to i64, !dbg !3727
  %15 = getelementptr inbounds i8** %12, i64 %14, !dbg !3727
  store i8** %15, i8*** @__environ, align 8, !dbg !3727
  br label %bb1, !dbg !3727

bb1:                                              ; preds = %bb, %entry
  %auxvt2 = bitcast [15 x %struct.Elf64_auxv_t]* %auxvt to %struct.Elf64_auxv_t*, !dbg !3728
  %auxvt23 = bitcast %struct.Elf64_auxv_t* %auxvt2 to i8*, !dbg !3728
  %16 = call i8* @memset(i8* %auxvt23, i32 0, i64 240) nounwind, !dbg !3728
  %17 = load i8*** @__environ, align 8, !dbg !3729
  %18 = bitcast i8** %17 to i64*, !dbg !3729
  store i64* %18, i64** %aux_dat, align 8, !dbg !3729
  br label %bb5, !dbg !3729

bb5:                                              ; preds = %bb5, %bb1
  %19 = load i64** %aux_dat, align 8, !dbg !3730
  %20 = load i64* %19, align 8, !dbg !3730
  %21 = icmp ne i64 %20, 0, !dbg !3730
  %22 = load i64** %aux_dat, align 8, !dbg !3731
  %23 = getelementptr inbounds i64* %22, i64 1, !dbg !3731
  store i64* %23, i64** %aux_dat, align 8, !dbg !3731
  br i1 %21, label %bb5, label %bb10, !dbg !3730

bb7:                                              ; preds = %bb10
  %24 = load i64** %aux_dat, align 8, !dbg !3732
  %25 = bitcast i64* %24 to %struct.Elf64_auxv_t*, !dbg !3732
  store %struct.Elf64_auxv_t* %25, %struct.Elf64_auxv_t** %auxv_entry, align 8, !dbg !3732
  %26 = load %struct.Elf64_auxv_t** %auxv_entry, align 8, !dbg !3734
  %27 = getelementptr inbounds %struct.Elf64_auxv_t* %26, i32 0, i32 0, !dbg !3734
  %28 = load i64* %27, align 8, !dbg !3734
  %29 = icmp ule i64 %28, 14, !dbg !3734
  br i1 %29, label %bb8, label %bb9, !dbg !3734

bb8:                                              ; preds = %bb7
  %30 = load %struct.Elf64_auxv_t** %auxv_entry, align 8, !dbg !3735
  %31 = getelementptr inbounds %struct.Elf64_auxv_t* %30, i32 0, i32 0, !dbg !3735
  %32 = load i64* %31, align 8, !dbg !3735
  %33 = getelementptr inbounds [15 x %struct.Elf64_auxv_t]* %auxvt, i64 0, i64 %32, !dbg !3735
  %34 = bitcast %struct.Elf64_auxv_t* %33 to i8*, !dbg !3735
  %35 = load %struct.Elf64_auxv_t** %auxv_entry, align 8, !dbg !3735
  %36 = bitcast %struct.Elf64_auxv_t* %35 to i8*, !dbg !3735
  %37 = call i8* @memcpy(i8* noalias %34, i8* noalias %36, i64 16) nounwind, !dbg !3735
  br label %bb9, !dbg !3735

bb9:                                              ; preds = %bb8, %bb7
  %38 = load i64** %aux_dat, align 8, !dbg !3736
  %39 = getelementptr inbounds i64* %38, i64 2, !dbg !3736
  store i64* %39, i64** %aux_dat, align 8, !dbg !3736
  br label %bb10, !dbg !3736

bb10:                                             ; preds = %bb5, %bb9
  %40 = load i64** %aux_dat, align 8, !dbg !3737
  %41 = load i64* %40, align 8, !dbg !3737
  %42 = icmp ne i64 %41, 0, !dbg !3737
  br i1 %42, label %bb7, label %bb11, !dbg !3737

bb11:                                             ; preds = %bb10
  call void @__uClibc_init() nounwind, !dbg !3738
  %43 = getelementptr inbounds [15 x %struct.Elf64_auxv_t]* %auxvt, i64 0, i64 6, !dbg !3739
  %44 = getelementptr inbounds %struct.Elf64_auxv_t* %43, i32 0, i32 1, !dbg !3739
  %45 = getelementptr inbounds %0* %44, i32 0, i32 0, !dbg !3739
  %46 = load i64* %45, align 8, !dbg !3739
  %47 = icmp ne i64 %46, 0, !dbg !3739
  br i1 %47, label %bb12, label %bb13, !dbg !3739

bb12:                                             ; preds = %bb11
  %48 = getelementptr inbounds [15 x %struct.Elf64_auxv_t]* %auxvt, i64 0, i64 6, !dbg !3739
  %49 = getelementptr inbounds %struct.Elf64_auxv_t* %48, i32 0, i32 1, !dbg !3739
  %50 = getelementptr inbounds %0* %49, i32 0, i32 0, !dbg !3739
  %51 = load i64* %50, align 8, !dbg !3739
  store i64 %51, i64* %iftmp.10, align 8, !dbg !3739
  br label %bb14, !dbg !3739

bb13:                                             ; preds = %bb11
  store i64 4096, i64* %iftmp.10, align 8, !dbg !3739
  br label %bb14, !dbg !3739

bb14:                                             ; preds = %bb13, %bb12
  %52 = load i64* %iftmp.10, align 8, !dbg !3739
  store i64 %52, i64* @__pagesize, align 8, !dbg !3739
  %53 = getelementptr inbounds [15 x %struct.Elf64_auxv_t]* %auxvt, i64 0, i64 11, !dbg !3740
  %54 = getelementptr inbounds %struct.Elf64_auxv_t* %53, i32 0, i32 1, !dbg !3740
  %55 = getelementptr inbounds %0* %54, i32 0, i32 0, !dbg !3740
  %56 = load i64* %55, align 8, !dbg !3740
  %57 = icmp ne i64 %56, -1, !dbg !3740
  br i1 %57, label %bb16, label %bb15, !dbg !3740

bb15:                                             ; preds = %bb14
  %58 = call i32 @__check_suid() nounwind, !dbg !3740
  %59 = icmp ne i32 %58, 0, !dbg !3740
  br i1 %59, label %bb19, label %bb16, !dbg !3740

bb16:                                             ; preds = %bb15, %bb14
  %60 = getelementptr inbounds [15 x %struct.Elf64_auxv_t]* %auxvt, i64 0, i64 11, !dbg !3740
  %61 = getelementptr inbounds %struct.Elf64_auxv_t* %60, i32 0, i32 1, !dbg !3740
  %62 = getelementptr inbounds %0* %61, i32 0, i32 0, !dbg !3740
  %63 = load i64* %62, align 8, !dbg !3740
  %64 = icmp eq i64 %63, -1, !dbg !3740
  br i1 %64, label %bb20, label %bb17, !dbg !3740

bb17:                                             ; preds = %bb16
  %65 = getelementptr inbounds [15 x %struct.Elf64_auxv_t]* %auxvt, i64 0, i64 11, !dbg !3740
  %66 = getelementptr inbounds %struct.Elf64_auxv_t* %65, i32 0, i32 1, !dbg !3740
  %67 = getelementptr inbounds %0* %66, i32 0, i32 0, !dbg !3740
  %68 = load i64* %67, align 8, !dbg !3740
  %69 = getelementptr inbounds [15 x %struct.Elf64_auxv_t]* %auxvt, i64 0, i64 12, !dbg !3740
  %70 = getelementptr inbounds %struct.Elf64_auxv_t* %69, i32 0, i32 1, !dbg !3740
  %71 = getelementptr inbounds %0* %70, i32 0, i32 0, !dbg !3740
  %72 = load i64* %71, align 8, !dbg !3740
  %73 = icmp ne i64 %68, %72, !dbg !3740
  br i1 %73, label %bb19, label %bb18, !dbg !3740

bb18:                                             ; preds = %bb17
  %74 = getelementptr inbounds [15 x %struct.Elf64_auxv_t]* %auxvt, i64 0, i64 13, !dbg !3740
  %75 = getelementptr inbounds %struct.Elf64_auxv_t* %74, i32 0, i32 1, !dbg !3740
  %76 = getelementptr inbounds %0* %75, i32 0, i32 0, !dbg !3740
  %77 = load i64* %76, align 8, !dbg !3740
  %78 = getelementptr inbounds [15 x %struct.Elf64_auxv_t]* %auxvt, i64 0, i64 14, !dbg !3740
  %79 = getelementptr inbounds %struct.Elf64_auxv_t* %78, i32 0, i32 1, !dbg !3740
  %80 = getelementptr inbounds %0* %79, i32 0, i32 0, !dbg !3740
  %81 = load i64* %80, align 8, !dbg !3740
  %82 = icmp ne i64 %77, %81, !dbg !3740
  br i1 %82, label %bb19, label %bb20, !dbg !3740

bb19:                                             ; preds = %bb18, %bb17, %bb15
  call void @__check_one_fd(i32 0, i32 131072) nounwind, !dbg !3741
  call void @__check_one_fd(i32 1, i32 131074) nounwind, !dbg !3742
  call void @__check_one_fd(i32 2, i32 131074) nounwind, !dbg !3743
  br label %bb20, !dbg !3743

bb20:                                             ; preds = %bb19, %bb18, %bb16
  %83 = load i8*** %argv_addr, align 8, !dbg !3744
  %84 = load i8** %83, align 8, !dbg !3744
  store i8* %84, i8** @__uclibc_progname, align 8, !dbg !3744
  %85 = load void ()** %app_fini_addr, align 8, !dbg !3745
  store void ()* %85, void ()** @__app_fini, align 8, !dbg !3745
  %86 = load void ()** %app_init_addr, align 8, !dbg !3746
  %87 = icmp ne void ()* %86, null, !dbg !3746
  br i1 %87, label %bb21, label %bb22, !dbg !3746

bb21:                                             ; preds = %bb20
  %88 = load void ()** %app_init_addr, align 8, !dbg !3747
  call void %88() nounwind, !dbg !3747
  br label %bb22, !dbg !3747

bb22:                                             ; preds = %bb21, %bb20
  %89 = icmp ne i8* bitcast (i32* ()* @__errno_location to i8*), null, !dbg !3748
  br i1 %89, label %bb23, label %bb24, !dbg !3748

bb23:                                             ; preds = %bb22
  %90 = call i32* @__errno_location() nounwind readnone, !dbg !3749
  store i32 0, i32* %90, align 4, !dbg !3749
  br label %bb24, !dbg !3749

bb24:                                             ; preds = %bb23, %bb22
  %91 = icmp ne i8* bitcast (i32* ()* @__h_errno_location to i8*), null, !dbg !3750
  br i1 %91, label %bb25, label %bb26, !dbg !3750

bb25:                                             ; preds = %bb24
  %92 = call i32* @__h_errno_location() nounwind readnone, !dbg !3751
  store i32 0, i32* %92, align 4, !dbg !3751
  br label %bb26, !dbg !3751

bb26:                                             ; preds = %bb25, %bb24
  %93 = load i8*** @__environ, align 8, !dbg !3752
  %94 = load i32 (i32, i8**, i8**)** %main_addr, align 8, !dbg !3752
  %95 = load i32* %argc_addr, align 4, !dbg !3752
  %96 = load i8*** %argv_addr, align 8, !dbg !3752
  %97 = call i32 %94(i32 %95, i8** %96, i8** %93) nounwind, !dbg !3752
  call void @exit(i32 %97) noreturn nounwind, !dbg !3752
  unreachable, !dbg !3752
}

define internal void @__setutent() nounwind {
entry:
  %ret = alloca i32
  %"alloca point" = bitcast i32 0 to i32
  %0 = load i32* @static_fd, align 4, !dbg !3753
  %1 = icmp eq i32 %0, -1, !dbg !3753
  br i1 %1, label %bb, label %bb5, !dbg !3753

bb:                                               ; preds = %entry
  %2 = load i8** @static_ut_name, align 8, !dbg !3755
  %3 = call i32 (i8*, i32, ...)* @open(i8* %2, i32 2) nounwind, !dbg !3755
  store i32 %3, i32* @static_fd, align 4, !dbg !3755
  %4 = load i32* @static_fd, align 4, !dbg !3755
  %5 = icmp slt i32 %4, 0, !dbg !3755
  br i1 %5, label %bb1, label %bb2, !dbg !3755

bb1:                                              ; preds = %bb
  %6 = load i8** @static_ut_name, align 8, !dbg !3756
  %7 = call i32 (i8*, i32, ...)* @open(i8* %6, i32 0) nounwind, !dbg !3756
  store i32 %7, i32* @static_fd, align 4, !dbg !3756
  %8 = load i32* @static_fd, align 4, !dbg !3756
  %9 = icmp slt i32 %8, 0, !dbg !3756
  br i1 %9, label %bummer, label %bb2, !dbg !3756

bb2:                                              ; preds = %bb1, %bb
  %10 = load i32* @static_fd, align 4, !dbg !3757
  %11 = call i32 (i32, i32, ...)* @fcntl(i32 %10, i32 1, i32 0) nounwind, !dbg !3757
  store i32 %11, i32* %ret, align 4, !dbg !3757
  %12 = load i32* %ret, align 4, !dbg !3758
  %13 = icmp sge i32 %12, 0, !dbg !3758
  br i1 %13, label %bb3, label %bb4, !dbg !3758

bb3:                                              ; preds = %bb2
  %14 = load i32* %ret, align 4, !dbg !3759
  %15 = or i32 %14, 1, !dbg !3759
  %16 = load i32* @static_fd, align 4, !dbg !3759
  %17 = call i32 (i32, i32, ...)* @fcntl(i32 %16, i32 2, i32 %15) nounwind, !dbg !3759
  store i32 %17, i32* %ret, align 4, !dbg !3759
  br label %bb4, !dbg !3759

bb4:                                              ; preds = %bb3, %bb2
  %18 = load i32* %ret, align 4, !dbg !3760
  %19 = icmp slt i32 %18, 0, !dbg !3760
  br i1 %19, label %bummer, label %bb5, !dbg !3760

bummer:                                           ; preds = %bb4, %bb1
  store i32 -1, i32* @static_fd, align 4, !dbg !3761
  %20 = load i32* @static_fd, align 4, !dbg !3762
  %21 = call i32 @close(i32 %20) nounwind, !dbg !3762
  ret void, !dbg !3763

bb5:                                              ; preds = %bb4, %entry
  %22 = load i32* @static_fd, align 4, !dbg !3764
  %23 = call i64 @lseek(i32 %22, i64 0, i32 0) nounwind, !dbg !3764
  ret void, !dbg !3763
}

define void @setutent() nounwind {
entry:
  call void @__setutent() nounwind, !dbg !3765
  ret void, !dbg !3767
}

define internal %struct.utmp* @__getutent(i32 %utmp_fd) nounwind {
entry:
  %utmp_fd_addr = alloca i32, align 4
  %retval = alloca %struct.utmp*
  %0 = alloca %struct.utmp*
  %ret = alloca %struct.utmp*
  %"alloca point" = bitcast i32 0 to i32
  store i32 %utmp_fd, i32* %utmp_fd_addr
  store %struct.utmp* null, %struct.utmp** %ret, align 8, !dbg !3768
  %1 = load i32* %utmp_fd_addr, align 4, !dbg !3770
  %2 = icmp eq i32 %1, -1, !dbg !3770
  br i1 %2, label %bb, label %bb1, !dbg !3770

bb:                                               ; preds = %entry
  call void @__setutent() nounwind, !dbg !3771
  br label %bb1, !dbg !3771

bb1:                                              ; preds = %bb, %entry
  %3 = load i32* %utmp_fd_addr, align 4, !dbg !3772
  %4 = icmp eq i32 %3, -1, !dbg !3772
  br i1 %4, label %bb2, label %bb3, !dbg !3772

bb2:                                              ; preds = %bb1
  store %struct.utmp* null, %struct.utmp** %0, align 8, !dbg !3773
  br label %bb6, !dbg !3773

bb3:                                              ; preds = %bb1
  %5 = load i32* %utmp_fd_addr, align 4, !dbg !3774
  %6 = call i64 @read(i32 %5, i8* bitcast (%struct.utmp* @static_utmp to i8*), i64 400) nounwind, !dbg !3774
  %7 = icmp eq i64 %6, 400, !dbg !3774
  br i1 %7, label %bb4, label %bb5, !dbg !3774

bb4:                                              ; preds = %bb3
  store %struct.utmp* @static_utmp, %struct.utmp** %ret, align 8, !dbg !3775
  br label %bb5, !dbg !3775

bb5:                                              ; preds = %bb4, %bb3
  %8 = load %struct.utmp** %ret, align 8, !dbg !3776
  store %struct.utmp* %8, %struct.utmp** %0, align 8, !dbg !3776
  br label %bb6, !dbg !3776

bb6:                                              ; preds = %bb5, %bb2
  %9 = load %struct.utmp** %0, align 8, !dbg !3773
  store %struct.utmp* %9, %struct.utmp** %retval, align 8, !dbg !3773
  %retval7 = load %struct.utmp** %retval, !dbg !3773
  ret %struct.utmp* %retval7, !dbg !3773
}

define void @endutent() nounwind {
entry:
  %0 = load i32* @static_fd, align 4, !dbg !3777
  %1 = icmp ne i32 %0, -1, !dbg !3777
  br i1 %1, label %bb, label %bb1, !dbg !3777

bb:                                               ; preds = %entry
  %2 = load i32* @static_fd, align 4, !dbg !3779
  %3 = call i32 @close(i32 %2) nounwind, !dbg !3779
  br label %bb1, !dbg !3779

bb1:                                              ; preds = %bb, %entry
  store i32 -1, i32* @static_fd, align 4, !dbg !3780
  ret void, !dbg !3781
}

define %struct.utmp* @getutent() nounwind {
entry:
  %retval = alloca %struct.utmp*
  %0 = alloca %struct.utmp*
  %ret = alloca %struct.utmp*
  %"alloca point" = bitcast i32 0 to i32
  store %struct.utmp* null, %struct.utmp** %ret, align 8, !dbg !3782
  %1 = load i32* @static_fd, align 4, !dbg !3784
  %2 = call %struct.utmp* @__getutent(i32 %1) nounwind, !dbg !3784
  store %struct.utmp* %2, %struct.utmp** %ret, align 8, !dbg !3784
  %3 = load %struct.utmp** %ret, align 8, !dbg !3785
  store %struct.utmp* %3, %struct.utmp** %0, align 8, !dbg !3785
  %4 = load %struct.utmp** %0, align 8, !dbg !3785
  store %struct.utmp* %4, %struct.utmp** %retval, align 8, !dbg !3785
  %retval1 = load %struct.utmp** %retval, !dbg !3785
  ret %struct.utmp* %retval1, !dbg !3785
}

define internal %struct.utmp* @__getutid(%struct.utmp* %utmp_entry) nounwind {
entry:
  %utmp_entry_addr = alloca %struct.utmp*, align 8
  %retval = alloca %struct.utmp*
  %0 = alloca %struct.utmp*
  %lutmp = alloca %struct.utmp*
  %"alloca point" = bitcast i32 0 to i32
  store %struct.utmp* %utmp_entry, %struct.utmp** %utmp_entry_addr
  br label %bb12, !dbg !3786

bb:                                               ; preds = %bb12
  %1 = load %struct.utmp** %utmp_entry_addr, align 8, !dbg !3788
  %2 = getelementptr inbounds %struct.utmp* %1, i32 0, i32 0, !dbg !3788
  %3 = load i16* %2, align 8, !dbg !3788
  %4 = icmp eq i16 %3, 1, !dbg !3788
  br i1 %4, label %bb4, label %bb1, !dbg !3788

bb1:                                              ; preds = %bb
  %5 = load %struct.utmp** %utmp_entry_addr, align 8, !dbg !3788
  %6 = getelementptr inbounds %struct.utmp* %5, i32 0, i32 0, !dbg !3788
  %7 = load i16* %6, align 8, !dbg !3788
  %8 = icmp eq i16 %7, 2, !dbg !3788
  br i1 %8, label %bb4, label %bb2, !dbg !3788

bb2:                                              ; preds = %bb1
  %9 = load %struct.utmp** %utmp_entry_addr, align 8, !dbg !3788
  %10 = getelementptr inbounds %struct.utmp* %9, i32 0, i32 0, !dbg !3788
  %11 = load i16* %10, align 8, !dbg !3788
  %12 = icmp eq i16 %11, 3, !dbg !3788
  br i1 %12, label %bb4, label %bb3, !dbg !3788

bb3:                                              ; preds = %bb2
  %13 = load %struct.utmp** %utmp_entry_addr, align 8, !dbg !3788
  %14 = getelementptr inbounds %struct.utmp* %13, i32 0, i32 0, !dbg !3788
  %15 = load i16* %14, align 8, !dbg !3788
  %16 = icmp eq i16 %15, 4, !dbg !3788
  br i1 %16, label %bb4, label %bb6, !dbg !3788

bb4:                                              ; preds = %bb3, %bb2, %bb1, %bb
  %17 = load %struct.utmp** %lutmp, align 8, !dbg !3788
  %18 = getelementptr inbounds %struct.utmp* %17, i32 0, i32 0, !dbg !3788
  %19 = load i16* %18, align 8, !dbg !3788
  %20 = load %struct.utmp** %utmp_entry_addr, align 8, !dbg !3788
  %21 = getelementptr inbounds %struct.utmp* %20, i32 0, i32 0, !dbg !3788
  %22 = load i16* %21, align 8, !dbg !3788
  %23 = icmp eq i16 %19, %22, !dbg !3788
  br i1 %23, label %bb5, label %bb6, !dbg !3788

bb5:                                              ; preds = %bb4
  %24 = load %struct.utmp** %lutmp, align 8, !dbg !3789
  store %struct.utmp* %24, %struct.utmp** %0, align 8, !dbg !3789
  br label %bb14, !dbg !3789

bb6:                                              ; preds = %bb4, %bb3
  %25 = load %struct.utmp** %utmp_entry_addr, align 8, !dbg !3790
  %26 = getelementptr inbounds %struct.utmp* %25, i32 0, i32 0, !dbg !3790
  %27 = load i16* %26, align 8, !dbg !3790
  %28 = icmp eq i16 %27, 5, !dbg !3790
  br i1 %28, label %bb10, label %bb7, !dbg !3790

bb7:                                              ; preds = %bb6
  %29 = load %struct.utmp** %utmp_entry_addr, align 8, !dbg !3790
  %30 = getelementptr inbounds %struct.utmp* %29, i32 0, i32 0, !dbg !3790
  %31 = load i16* %30, align 8, !dbg !3790
  %32 = icmp eq i16 %31, 8, !dbg !3790
  br i1 %32, label %bb10, label %bb8, !dbg !3790

bb8:                                              ; preds = %bb7
  %33 = load %struct.utmp** %utmp_entry_addr, align 8, !dbg !3790
  %34 = getelementptr inbounds %struct.utmp* %33, i32 0, i32 0, !dbg !3790
  %35 = load i16* %34, align 8, !dbg !3790
  %36 = icmp eq i16 %35, 6, !dbg !3790
  br i1 %36, label %bb10, label %bb9, !dbg !3790

bb9:                                              ; preds = %bb8
  %37 = load %struct.utmp** %utmp_entry_addr, align 8, !dbg !3790
  %38 = getelementptr inbounds %struct.utmp* %37, i32 0, i32 0, !dbg !3790
  %39 = load i16* %38, align 8, !dbg !3790
  %40 = icmp eq i16 %39, 7, !dbg !3790
  br i1 %40, label %bb10, label %bb12, !dbg !3790

bb10:                                             ; preds = %bb9, %bb8, %bb7, %bb6
  %41 = load %struct.utmp** %utmp_entry_addr, align 8, !dbg !3790
  %42 = getelementptr inbounds %struct.utmp* %41, i32 0, i32 3, !dbg !3790
  %43 = getelementptr inbounds [4 x i8]* %42, i64 0, i64 0, !dbg !3790
  %44 = load %struct.utmp** %lutmp, align 8, !dbg !3790
  %45 = getelementptr inbounds %struct.utmp* %44, i32 0, i32 3, !dbg !3790
  %46 = getelementptr inbounds [4 x i8]* %45, i64 0, i64 0, !dbg !3790
  %47 = call i32 @strncmp(i8* %46, i8* %43, i64 4) nounwind readonly, !dbg !3790
  %48 = icmp eq i32 %47, 0, !dbg !3790
  br i1 %48, label %bb11, label %bb12, !dbg !3790

bb11:                                             ; preds = %bb10
  %49 = load %struct.utmp** %lutmp, align 8, !dbg !3791
  store %struct.utmp* %49, %struct.utmp** %0, align 8, !dbg !3791
  br label %bb14, !dbg !3791

bb12:                                             ; preds = %bb10, %bb9, %entry
  %50 = load i32* @static_fd, align 4, !dbg !3786
  %51 = call %struct.utmp* @__getutent(i32 %50) nounwind, !dbg !3786
  store %struct.utmp* %51, %struct.utmp** %lutmp, align 8, !dbg !3786
  %52 = load %struct.utmp** %lutmp, align 8, !dbg !3786
  %53 = icmp ne %struct.utmp* %52, null, !dbg !3786
  br i1 %53, label %bb, label %bb13, !dbg !3786

bb13:                                             ; preds = %bb12
  store %struct.utmp* null, %struct.utmp** %0, align 8, !dbg !3792
  br label %bb14, !dbg !3792

bb14:                                             ; preds = %bb13, %bb11, %bb5
  %54 = load %struct.utmp** %0, align 8, !dbg !3789
  store %struct.utmp* %54, %struct.utmp** %retval, align 8, !dbg !3789
  %retval15 = load %struct.utmp** %retval, !dbg !3789
  ret %struct.utmp* %retval15, !dbg !3789
}

define %struct.utmp* @getutid(%struct.utmp* %utmp_entry) nounwind {
entry:
  %utmp_entry_addr = alloca %struct.utmp*, align 8
  %retval = alloca %struct.utmp*
  %0 = alloca %struct.utmp*
  %ret = alloca %struct.utmp*
  %"alloca point" = bitcast i32 0 to i32
  store %struct.utmp* %utmp_entry, %struct.utmp** %utmp_entry_addr
  store %struct.utmp* null, %struct.utmp** %ret, align 8, !dbg !3793
  %1 = load %struct.utmp** %utmp_entry_addr, align 8, !dbg !3795
  %2 = call %struct.utmp* @__getutid(%struct.utmp* %1) nounwind, !dbg !3795
  store %struct.utmp* %2, %struct.utmp** %ret, align 8, !dbg !3795
  %3 = load %struct.utmp** %ret, align 8, !dbg !3796
  store %struct.utmp* %3, %struct.utmp** %0, align 8, !dbg !3796
  %4 = load %struct.utmp** %0, align 8, !dbg !3796
  store %struct.utmp* %4, %struct.utmp** %retval, align 8, !dbg !3796
  %retval1 = load %struct.utmp** %retval, !dbg !3796
  ret %struct.utmp* %retval1, !dbg !3796
}

define %struct.utmp* @getutline(%struct.utmp* %utmp_entry) nounwind {
entry:
  %utmp_entry_addr = alloca %struct.utmp*, align 8
  %retval = alloca %struct.utmp*
  %0 = alloca %struct.utmp*
  %lutmp = alloca %struct.utmp*
  %"alloca point" = bitcast i32 0 to i32
  store %struct.utmp* %utmp_entry, %struct.utmp** %utmp_entry_addr
  store %struct.utmp* null, %struct.utmp** %lutmp, align 8, !dbg !3797
  br label %bb3, !dbg !3797

bb:                                               ; preds = %bb3
  %1 = load %struct.utmp** %lutmp, align 8, !dbg !3799
  %2 = getelementptr inbounds %struct.utmp* %1, i32 0, i32 0, !dbg !3799
  %3 = load i16* %2, align 8, !dbg !3799
  %4 = icmp eq i16 %3, 7, !dbg !3799
  br i1 %4, label %bb2, label %bb1, !dbg !3799

bb1:                                              ; preds = %bb
  %5 = load %struct.utmp** %lutmp, align 8, !dbg !3799
  %6 = getelementptr inbounds %struct.utmp* %5, i32 0, i32 0, !dbg !3799
  %7 = load i16* %6, align 8, !dbg !3799
  %8 = icmp eq i16 %7, 6, !dbg !3799
  br i1 %8, label %bb2, label %bb3, !dbg !3799

bb2:                                              ; preds = %bb1, %bb
  %9 = load %struct.utmp** %utmp_entry_addr, align 8, !dbg !3799
  %10 = getelementptr inbounds %struct.utmp* %9, i32 0, i32 2, !dbg !3799
  %11 = getelementptr inbounds [32 x i8]* %10, i64 0, i64 0, !dbg !3799
  %12 = load %struct.utmp** %lutmp, align 8, !dbg !3799
  %13 = getelementptr inbounds %struct.utmp* %12, i32 0, i32 2, !dbg !3799
  %14 = getelementptr inbounds [32 x i8]* %13, i64 0, i64 0, !dbg !3799
  %15 = call i32 @strcmp(i8* %14, i8* %11) nounwind readonly, !dbg !3799
  %16 = icmp eq i32 %15, 0, !dbg !3799
  br i1 %16, label %bb4, label %bb3, !dbg !3799

bb3:                                              ; preds = %bb2, %bb1, %entry
  %17 = load i32* @static_fd, align 4, !dbg !3800
  %18 = call %struct.utmp* @__getutent(i32 %17) nounwind, !dbg !3800
  store %struct.utmp* %18, %struct.utmp** %lutmp, align 8, !dbg !3800
  %19 = load %struct.utmp** %lutmp, align 8, !dbg !3800
  %20 = icmp ne %struct.utmp* %19, null, !dbg !3800
  br i1 %20, label %bb, label %bb4, !dbg !3800

bb4:                                              ; preds = %bb3, %bb2
  %21 = load %struct.utmp** %lutmp, align 8, !dbg !3801
  store %struct.utmp* %21, %struct.utmp** %0, align 8, !dbg !3801
  %22 = load %struct.utmp** %0, align 8, !dbg !3801
  store %struct.utmp* %22, %struct.utmp** %retval, align 8, !dbg !3801
  %retval5 = load %struct.utmp** %retval, !dbg !3801
  ret %struct.utmp* %retval5, !dbg !3801
}

define %struct.utmp* @pututline(%struct.utmp* %utmp_entry) nounwind {
entry:
  %utmp_entry_addr = alloca %struct.utmp*, align 8
  %retval = alloca %struct.utmp*
  %0 = alloca %struct.utmp*
  %"alloca point" = bitcast i32 0 to i32
  store %struct.utmp* %utmp_entry, %struct.utmp** %utmp_entry_addr
  %1 = load i32* @static_fd, align 4, !dbg !3802
  %2 = call i64 @lseek(i32 %1, i64 -400, i32 1) nounwind, !dbg !3802
  %3 = load %struct.utmp** %utmp_entry_addr, align 8, !dbg !3804
  %4 = call %struct.utmp* @__getutid(%struct.utmp* %3) nounwind, !dbg !3804
  %5 = icmp ne %struct.utmp* %4, null, !dbg !3804
  %6 = load i32* @static_fd, align 4, !dbg !3805
  br i1 %5, label %bb, label %bb1, !dbg !3804

bb:                                               ; preds = %entry
  %7 = call i64 @lseek(i32 %6, i64 -400, i32 1) nounwind, !dbg !3805
  br label %bb2, !dbg !3805

bb1:                                              ; preds = %entry
  %8 = call i64 @lseek(i32 %6, i64 0, i32 2) nounwind, !dbg !3806
  br label %bb2, !dbg !3806

bb2:                                              ; preds = %bb1, %bb
  %9 = load i32* @static_fd, align 4, !dbg !3807
  %10 = load %struct.utmp** %utmp_entry_addr, align 8, !dbg !3807
  %11 = bitcast %struct.utmp* %10 to i8*, !dbg !3807
  %12 = call i64 @write(i32 %9, i8* %11, i64 400) nounwind, !dbg !3807
  %13 = icmp ne i64 %12, 400, !dbg !3807
  br i1 %13, label %bb3, label %bb4, !dbg !3807

bb3:                                              ; preds = %bb2
  store %struct.utmp* null, %struct.utmp** %utmp_entry_addr, align 8, !dbg !3808
  br label %bb4, !dbg !3808

bb4:                                              ; preds = %bb3, %bb2
  %14 = load %struct.utmp** %utmp_entry_addr, align 8, !dbg !3809
  store %struct.utmp* %14, %struct.utmp** %0, align 8, !dbg !3809
  %15 = load %struct.utmp** %0, align 8, !dbg !3809
  store %struct.utmp* %15, %struct.utmp** %retval, align 8, !dbg !3809
  %retval5 = load %struct.utmp** %retval, !dbg !3809
  ret %struct.utmp* %retval5, !dbg !3809
}

define i32 @utmpname(i8* %new_ut_name) nounwind {
entry:
  %new_ut_name_addr = alloca i8*, align 8
  %retval = alloca i32
  %0 = alloca i32
  %"alloca point" = bitcast i32 0 to i32
  store i8* %new_ut_name, i8** %new_ut_name_addr
  %1 = load i8** %new_ut_name_addr, align 8, !dbg !3810
  %2 = icmp ne i8* %1, null, !dbg !3810
  br i1 %2, label %bb, label %bb4, !dbg !3810

bb:                                               ; preds = %entry
  %3 = load i8** @static_ut_name, align 8, !dbg !3812
  %4 = icmp ne i8* %3, getelementptr inbounds ([14 x i8]* @default_file_name, i64 0, i64 0), !dbg !3812
  br i1 %4, label %bb1, label %bb2, !dbg !3812

bb1:                                              ; preds = %bb
  %5 = load i8** @static_ut_name, align 8, !dbg !3813
  call void @free(i8* %5) nounwind, !dbg !3813
  br label %bb2, !dbg !3813

bb2:                                              ; preds = %bb1, %bb
  %6 = load i8** %new_ut_name_addr, align 8, !dbg !3814
  %7 = call noalias i8* @strdup(i8* %6) nounwind, !dbg !3814
  store i8* %7, i8** @static_ut_name, align 8, !dbg !3814
  %8 = load i8** @static_ut_name, align 8, !dbg !3815
  %9 = icmp eq i8* %8, null, !dbg !3815
  br i1 %9, label %bb3, label %bb4, !dbg !3815

bb3:                                              ; preds = %bb2
  store i8* getelementptr inbounds ([14 x i8]* @default_file_name, i64 0, i64 0), i8** @static_ut_name, align 8, !dbg !3816
  br label %bb4, !dbg !3816

bb4:                                              ; preds = %bb3, %bb2, %entry
  %10 = load i32* @static_fd, align 4, !dbg !3817
  %11 = icmp ne i32 %10, -1, !dbg !3817
  br i1 %11, label %bb5, label %bb6, !dbg !3817

bb5:                                              ; preds = %bb4
  %12 = load i32* @static_fd, align 4, !dbg !3818
  %13 = call i32 @close(i32 %12) nounwind, !dbg !3818
  br label %bb6, !dbg !3818

bb6:                                              ; preds = %bb5, %bb4
  store i32 -1, i32* @static_fd, align 4, !dbg !3819
  store i32 0, i32* %0, align 4, !dbg !3820
  %14 = load i32* %0, align 4, !dbg !3820
  store i32 %14, i32* %retval, align 4, !dbg !3820
  %retval7 = load i32* %retval, !dbg !3820
  ret i32 %retval7, !dbg !3820
}

declare void @free(i8*) nounwind

define i8* @realpath(i8* %path, i8* %resolved_path) nounwind {
entry:
  %path_addr = alloca i8*, align 8
  %resolved_path_addr = alloca i8*, align 8
  %retval = alloca i8*
  %0 = alloca i8*
  %copy_path = alloca [4096 x i8]
  %link_path = alloca [4096 x i8]
  %got_path = alloca [4096 x i8]
  %new_path = alloca i8*
  %max_path = alloca i8*
  %readlinks = alloca i32
  %n = alloca i32
  %"alloca point" = bitcast i32 0 to i32
  store i8* %path, i8** %path_addr
  store i8* %resolved_path, i8** %resolved_path_addr
  %got_path1 = bitcast [4096 x i8]* %got_path to i8*, !dbg !3821
  store i8* %got_path1, i8** %new_path, align 8, !dbg !3821
  store i32 0, i32* %readlinks, align 4, !dbg !3823
  %1 = load i8** %path_addr, align 8, !dbg !3824
  %2 = icmp eq i8* %1, null, !dbg !3824
  br i1 %2, label %bb, label %bb2, !dbg !3824

bb:                                               ; preds = %entry
  store i32 22, i32* @errno, align 4, !dbg !3825
  store i8* null, i8** %0, align 8, !dbg !3826
  br label %bb62, !dbg !3826

bb2:                                              ; preds = %entry
  %3 = load i8** %path_addr, align 8, !dbg !3827
  %4 = load i8* %3, align 1, !dbg !3827
  %5 = icmp eq i8 %4, 0, !dbg !3827
  br i1 %5, label %bb3, label %bb4, !dbg !3827

bb3:                                              ; preds = %bb2
  store i32 2, i32* @errno, align 4, !dbg !3828
  store i8* null, i8** %0, align 8, !dbg !3829
  br label %bb62, !dbg !3829

bb4:                                              ; preds = %bb2
  %6 = load i8** %path_addr, align 8, !dbg !3830
  %7 = call i64 @strlen(i8* %6) nounwind readonly, !dbg !3830
  %8 = icmp ugt i64 %7, 4093, !dbg !3830
  br i1 %8, label %bb5, label %bb6, !dbg !3830

bb5:                                              ; preds = %bb4
  store i32 36, i32* @errno, align 4, !dbg !3831
  store i8* null, i8** %0, align 8, !dbg !3832
  br label %bb62, !dbg !3832

bb6:                                              ; preds = %bb4
  %copy_path7 = bitcast [4096 x i8]* %copy_path to i8*, !dbg !3833
  %9 = load i8** %path_addr, align 8, !dbg !3833
  %10 = call i8* @strcpy(i8* noalias %copy_path7, i8* noalias %9) nounwind, !dbg !3833
  %copy_path8 = bitcast [4096 x i8]* %copy_path to i8*, !dbg !3834
  store i8* %copy_path8, i8** %path_addr, align 8, !dbg !3834
  %copy_path9 = bitcast [4096 x i8]* %copy_path to i8*, !dbg !3835
  %11 = getelementptr inbounds i8* %copy_path9, i64 4096, !dbg !3835
  %12 = getelementptr inbounds i8* %11, i64 -2, !dbg !3835
  store i8* %12, i8** %max_path, align 8, !dbg !3835
  %13 = load i8** %path_addr, align 8, !dbg !3836
  %14 = load i8* %13, align 1, !dbg !3836
  %15 = icmp ne i8 %14, 47, !dbg !3836
  %16 = load i8** %new_path, align 8, !dbg !3837
  br i1 %15, label %bb10, label %bb13, !dbg !3836

bb10:                                             ; preds = %bb6
  %17 = call i8* @getcwd(i8* %16, i64 4095) nounwind, !dbg !3837
  %18 = load i8** %new_path, align 8, !dbg !3838
  %19 = call i64 @strlen(i8* %18) nounwind readonly, !dbg !3838
  %20 = load i8** %new_path, align 8, !dbg !3838
  %21 = getelementptr inbounds i8* %20, i64 %19, !dbg !3838
  store i8* %21, i8** %new_path, align 8, !dbg !3838
  %22 = load i8** %new_path, align 8, !dbg !3839
  %23 = getelementptr inbounds i8* %22, i64 -1, !dbg !3839
  %24 = load i8* %23, align 1, !dbg !3839
  %25 = icmp ne i8 %24, 47, !dbg !3839
  br i1 %25, label %bb11, label %bb55, !dbg !3839

bb11:                                             ; preds = %bb10
  %26 = load i8** %new_path, align 8, !dbg !3840
  store i8 47, i8* %26, align 1, !dbg !3840
  %27 = load i8** %new_path, align 8, !dbg !3840
  %28 = getelementptr inbounds i8* %27, i64 1, !dbg !3840
  store i8* %28, i8** %new_path, align 8, !dbg !3840
  br label %bb55, !dbg !3840

bb13:                                             ; preds = %bb6
  store i8 47, i8* %16, align 1, !dbg !3841
  %29 = load i8** %new_path, align 8, !dbg !3841
  %30 = getelementptr inbounds i8* %29, i64 1, !dbg !3841
  store i8* %30, i8** %new_path, align 8, !dbg !3841
  %31 = load i8** %path_addr, align 8, !dbg !3842
  %32 = getelementptr inbounds i8* %31, i64 1, !dbg !3842
  store i8* %32, i8** %path_addr, align 8, !dbg !3842
  br label %bb55, !dbg !3842

bb15:                                             ; preds = %bb55
  %33 = load i8** %path_addr, align 8, !dbg !3843
  %34 = load i8* %33, align 1, !dbg !3843
  %35 = icmp eq i8 %34, 47, !dbg !3843
  %36 = load i8** %path_addr, align 8, !dbg !3844
  br i1 %35, label %bb16, label %bb17, !dbg !3843

bb16:                                             ; preds = %bb15
  %37 = getelementptr inbounds i8* %36, i64 1, !dbg !3844
  store i8* %37, i8** %path_addr, align 8, !dbg !3844
  br label %bb55, !dbg !3844

bb17:                                             ; preds = %bb15
  %38 = load i8* %36, align 1, !dbg !3845
  %39 = icmp eq i8 %38, 46, !dbg !3845
  br i1 %39, label %bb18, label %bb32, !dbg !3845

bb18:                                             ; preds = %bb17
  %40 = load i8** %path_addr, align 8, !dbg !3846
  %41 = getelementptr inbounds i8* %40, i64 1, !dbg !3846
  %42 = load i8* %41, align 1, !dbg !3846
  %43 = icmp eq i8 %42, 0, !dbg !3846
  br i1 %43, label %bb20, label %bb19, !dbg !3846

bb19:                                             ; preds = %bb18
  %44 = load i8** %path_addr, align 8, !dbg !3846
  %45 = getelementptr inbounds i8* %44, i64 1, !dbg !3846
  %46 = load i8* %45, align 1, !dbg !3846
  %47 = icmp eq i8 %46, 47, !dbg !3846
  br i1 %47, label %bb20, label %bb21, !dbg !3846

bb20:                                             ; preds = %bb19, %bb18
  %48 = load i8** %path_addr, align 8, !dbg !3847
  %49 = getelementptr inbounds i8* %48, i64 1, !dbg !3847
  store i8* %49, i8** %path_addr, align 8, !dbg !3847
  br label %bb55, !dbg !3847

bb21:                                             ; preds = %bb19
  %50 = load i8** %path_addr, align 8, !dbg !3848
  %51 = getelementptr inbounds i8* %50, i64 1, !dbg !3848
  %52 = load i8* %51, align 1, !dbg !3848
  %53 = icmp eq i8 %52, 46, !dbg !3848
  br i1 %53, label %bb22, label %bb32, !dbg !3848

bb22:                                             ; preds = %bb21
  %54 = load i8** %path_addr, align 8, !dbg !3849
  %55 = getelementptr inbounds i8* %54, i64 2, !dbg !3849
  %56 = load i8* %55, align 1, !dbg !3849
  %57 = icmp eq i8 %56, 0, !dbg !3849
  br i1 %57, label %bb24, label %bb23, !dbg !3849

bb23:                                             ; preds = %bb22
  %58 = load i8** %path_addr, align 8, !dbg !3849
  %59 = getelementptr inbounds i8* %58, i64 2, !dbg !3849
  %60 = load i8* %59, align 1, !dbg !3849
  %61 = icmp eq i8 %60, 47, !dbg !3849
  br i1 %61, label %bb24, label %bb32, !dbg !3849

bb24:                                             ; preds = %bb23, %bb22
  %62 = load i8** %path_addr, align 8, !dbg !3850
  %63 = getelementptr inbounds i8* %62, i64 2, !dbg !3850
  store i8* %63, i8** %path_addr, align 8, !dbg !3850
  %got_path25 = bitcast [4096 x i8]* %got_path to i8*, !dbg !3851
  %64 = getelementptr inbounds i8* %got_path25, i64 1, !dbg !3851
  %65 = load i8** %new_path, align 8, !dbg !3851
  %66 = icmp eq i8* %64, %65, !dbg !3851
  br i1 %66, label %bb55, label %bb26, !dbg !3851

bb26:                                             ; preds = %bb26, %bb24
  %67 = load i8** %new_path, align 8, !dbg !3852
  %68 = getelementptr inbounds i8* %67, i64 -1, !dbg !3852
  store i8* %68, i8** %new_path, align 8, !dbg !3852
  %69 = load i8** %new_path, align 8, !dbg !3852
  %70 = getelementptr inbounds i8* %69, i64 -1, !dbg !3852
  %71 = load i8* %70, align 1, !dbg !3852
  %72 = icmp ne i8 %71, 47, !dbg !3852
  br i1 %72, label %bb26, label %bb55, !dbg !3852

bb29:                                             ; preds = %bb33
  %73 = load i8** %path_addr, align 8, !dbg !3853
  %74 = load i8** %max_path, align 8, !dbg !3853
  %75 = icmp ugt i8* %73, %74, !dbg !3853
  br i1 %75, label %bb30, label %bb31, !dbg !3853

bb30:                                             ; preds = %bb29
  store i32 36, i32* @errno, align 4, !dbg !3854
  store i8* null, i8** %0, align 8, !dbg !3855
  br label %bb62, !dbg !3855

bb31:                                             ; preds = %bb29
  %76 = load i8** %path_addr, align 8, !dbg !3856
  %77 = load i8* %76, align 1, !dbg !3856
  %78 = load i8** %new_path, align 8, !dbg !3856
  store i8 %77, i8* %78, align 1, !dbg !3856
  %79 = load i8** %new_path, align 8, !dbg !3856
  %80 = getelementptr inbounds i8* %79, i64 1, !dbg !3856
  store i8* %80, i8** %new_path, align 8, !dbg !3856
  %81 = load i8** %path_addr, align 8, !dbg !3856
  %82 = getelementptr inbounds i8* %81, i64 1, !dbg !3856
  store i8* %82, i8** %path_addr, align 8, !dbg !3856
  br label %bb32, !dbg !3856

bb32:                                             ; preds = %bb17, %bb21, %bb23, %bb31
  %83 = load i8** %path_addr, align 8, !dbg !3857
  %84 = load i8* %83, align 1, !dbg !3857
  %85 = icmp eq i8 %84, 0, !dbg !3857
  br i1 %85, label %bb34, label %bb33, !dbg !3857

bb33:                                             ; preds = %bb32
  %86 = load i8** %path_addr, align 8, !dbg !3857
  %87 = load i8* %86, align 1, !dbg !3857
  %88 = icmp ne i8 %87, 47, !dbg !3857
  br i1 %88, label %bb29, label %bb34, !dbg !3857

bb34:                                             ; preds = %bb33, %bb32
  %89 = load i32* %readlinks, align 4, !dbg !3858
  %90 = icmp sgt i32 %89, 32, !dbg !3858
  %91 = zext i1 %90 to i8, !dbg !3858
  %92 = load i32* %readlinks, align 4, !dbg !3858
  %93 = add nsw i32 %92, 1, !dbg !3858
  store i32 %93, i32* %readlinks, align 4, !dbg !3858
  %toBool = icmp ne i8 %91, 0, !dbg !3858
  br i1 %toBool, label %bb35, label %bb36, !dbg !3858

bb35:                                             ; preds = %bb34
  store i32 40, i32* @errno, align 4, !dbg !3859
  store i8* null, i8** %0, align 8, !dbg !3860
  br label %bb62, !dbg !3860

bb36:                                             ; preds = %bb34
  %94 = load i8** %new_path, align 8, !dbg !3861
  store i8 0, i8* %94, align 1, !dbg !3861
  %got_path37 = bitcast [4096 x i8]* %got_path to i8*, !dbg !3862
  %link_path38 = bitcast [4096 x i8]* %link_path to i8*, !dbg !3862
  %95 = call i64 @readlink(i8* noalias %got_path37, i8* noalias %link_path38, i64 4095) nounwind, !dbg !3862
  %96 = trunc i64 %95 to i32, !dbg !3862
  store i32 %96, i32* %n, align 4, !dbg !3862
  %97 = load i32* %n, align 4, !dbg !3863
  %98 = icmp slt i32 %97, 0, !dbg !3863
  br i1 %98, label %bb39, label %bb43, !dbg !3863

bb39:                                             ; preds = %bb36
  %99 = load i32* @errno, align 4, !dbg !3864
  %100 = icmp ne i32 %99, 22, !dbg !3864
  br i1 %100, label %bb40, label %bb54, !dbg !3864

bb40:                                             ; preds = %bb39
  %101 = load i8** %new_path, align 8, !dbg !3865
  store i8 0, i8* %101, align 1, !dbg !3865
  %102 = load i8** %resolved_path_addr, align 8, !dbg !3866
  %got_path41 = bitcast [4096 x i8]* %got_path to i8*, !dbg !3866
  %103 = call i8* @strcpy(i8* noalias %102, i8* noalias %got_path41) nounwind, !dbg !3866
  store i8* null, i8** %0, align 8, !dbg !3867
  br label %bb62, !dbg !3867

bb43:                                             ; preds = %bb36
  %104 = load i32* %n, align 4, !dbg !3868
  %105 = sext i32 %104 to i64, !dbg !3868
  %106 = getelementptr inbounds [4096 x i8]* %link_path, i64 0, i64 %105, !dbg !3868
  store i8 0, i8* %106, align 1, !dbg !3868
  %107 = getelementptr inbounds [4096 x i8]* %link_path, i64 0, i64 0, !dbg !3869
  %108 = load i8* %107, align 1, !dbg !3869
  %109 = icmp eq i8 %108, 47, !dbg !3869
  br i1 %109, label %bb44, label %bb46, !dbg !3869

bb44:                                             ; preds = %bb43
  %got_path45 = bitcast [4096 x i8]* %got_path to i8*, !dbg !3870
  store i8* %got_path45, i8** %new_path, align 8, !dbg !3870
  br label %bb47, !dbg !3870

bb46:                                             ; preds = %bb46, %bb43
  %110 = load i8** %new_path, align 8, !dbg !3871
  %111 = getelementptr inbounds i8* %110, i64 -1, !dbg !3871
  store i8* %111, i8** %new_path, align 8, !dbg !3871
  %112 = load i8** %new_path, align 8, !dbg !3871
  %113 = load i8* %112, align 1, !dbg !3871
  %114 = icmp ne i8 %113, 47, !dbg !3871
  br i1 %114, label %bb46, label %bb47, !dbg !3871

bb47:                                             ; preds = %bb46, %bb44
  %115 = load i8** %path_addr, align 8, !dbg !3872
  %116 = call i64 @strlen(i8* %115) nounwind readonly, !dbg !3872
  %117 = load i32* %n, align 4, !dbg !3872
  %118 = sext i32 %117 to i64, !dbg !3872
  %119 = add i64 %116, %118, !dbg !3872
  %120 = icmp ugt i64 %119, 4093, !dbg !3872
  br i1 %120, label %bb48, label %bb49, !dbg !3872

bb48:                                             ; preds = %bb47
  store i32 36, i32* @errno, align 4, !dbg !3873
  store i8* null, i8** %0, align 8, !dbg !3874
  br label %bb62, !dbg !3874

bb49:                                             ; preds = %bb47
  %link_path50 = bitcast [4096 x i8]* %link_path to i8*, !dbg !3875
  %121 = load i8** %path_addr, align 8, !dbg !3875
  %122 = call i8* @strcat(i8* noalias %link_path50, i8* noalias %121) nounwind, !dbg !3875
  %copy_path51 = bitcast [4096 x i8]* %copy_path to i8*, !dbg !3876
  %link_path52 = bitcast [4096 x i8]* %link_path to i8*, !dbg !3876
  %123 = call i8* @strcpy(i8* noalias %copy_path51, i8* noalias %link_path52) nounwind, !dbg !3876
  %copy_path53 = bitcast [4096 x i8]* %copy_path to i8*, !dbg !3877
  store i8* %copy_path53, i8** %path_addr, align 8, !dbg !3877
  br label %bb54, !dbg !3877

bb54:                                             ; preds = %bb39, %bb49
  %124 = load i8** %new_path, align 8, !dbg !3878
  store i8 47, i8* %124, align 1, !dbg !3878
  %125 = load i8** %new_path, align 8, !dbg !3878
  %126 = getelementptr inbounds i8* %125, i64 1, !dbg !3878
  store i8* %126, i8** %new_path, align 8, !dbg !3878
  br label %bb55, !dbg !3878

bb55:                                             ; preds = %bb26, %bb13, %bb11, %bb10, %bb54, %bb24, %bb20, %bb16
  %127 = load i8** %path_addr, align 8, !dbg !3879
  %128 = load i8* %127, align 1, !dbg !3879
  %129 = icmp ne i8 %128, 0, !dbg !3879
  br i1 %129, label %bb15, label %bb56, !dbg !3879

bb56:                                             ; preds = %bb55
  %got_path57 = bitcast [4096 x i8]* %got_path to i8*, !dbg !3880
  %130 = getelementptr inbounds i8* %got_path57, i64 1, !dbg !3880
  %131 = load i8** %new_path, align 8, !dbg !3880
  %132 = icmp ne i8* %130, %131, !dbg !3880
  br i1 %132, label %bb58, label %bb60, !dbg !3880

bb58:                                             ; preds = %bb56
  %133 = load i8** %new_path, align 8, !dbg !3880
  %134 = getelementptr inbounds i8* %133, i64 -1, !dbg !3880
  %135 = load i8* %134, align 1, !dbg !3880
  %136 = icmp eq i8 %135, 47, !dbg !3880
  br i1 %136, label %bb59, label %bb60, !dbg !3880

bb59:                                             ; preds = %bb58
  %137 = load i8** %new_path, align 8, !dbg !3881
  %138 = getelementptr inbounds i8* %137, i64 -1, !dbg !3881
  store i8* %138, i8** %new_path, align 8, !dbg !3881
  br label %bb60, !dbg !3881

bb60:                                             ; preds = %bb59, %bb58, %bb56
  %139 = load i8** %new_path, align 8, !dbg !3882
  store i8 0, i8* %139, align 1, !dbg !3882
  %140 = load i8** %resolved_path_addr, align 8, !dbg !3883
  %got_path61 = bitcast [4096 x i8]* %got_path to i8*, !dbg !3883
  %141 = call i8* @strcpy(i8* noalias %140, i8* noalias %got_path61) nounwind, !dbg !3883
  %142 = load i8** %resolved_path_addr, align 8, !dbg !3884
  store i8* %142, i8** %0, align 8, !dbg !3884
  br label %bb62, !dbg !3884

bb62:                                             ; preds = %bb60, %bb48, %bb40, %bb35, %bb30, %bb5, %bb3, %bb
  %143 = load i8** %0, align 8, !dbg !3826
  store i8* %143, i8** %retval, align 8, !dbg !3826
  %retval63 = load i8** %retval, !dbg !3826
  ret i8* %retval63, !dbg !3826
}

declare void @abort() noreturn nounwind

declare void @_exit(i32) noreturn

define weak i32* @__errno_location() nounwind readnone {
entry:
  %retval = alloca i32*
  %0 = alloca i32*
  %"alloca point" = bitcast i32 0 to i32
  store i32* @errno, i32** %0, align 8, !dbg !3885
  %1 = load i32** %0, align 8, !dbg !3885
  store i32* %1, i32** %retval, align 8, !dbg !3885
  %retval1 = load i32** %retval, !dbg !3885
  ret i32* %retval1, !dbg !3885
}

define hidden %struct.exit_function* @__new_exitfn() nounwind {
entry:
  %retval = alloca %struct.exit_function*
  %0 = alloca %struct.exit_function*
  %efp = alloca %struct.exit_function*
  %"alloca point" = bitcast i32 0 to i32
  %1 = load i32* @__exit_count, align 4, !dbg !3887
  %2 = add nsw i32 %1, 1, !dbg !3887
  %3 = load i32* @__exit_slots, align 4, !dbg !3887
  %4 = icmp sgt i32 %2, %3, !dbg !3887
  br i1 %4, label %bb, label %bb3, !dbg !3887

bb:                                               ; preds = %entry
  %5 = load i32* @__exit_slots, align 4, !dbg !3889
  %6 = add nsw i32 %5, 20, !dbg !3889
  %7 = sext i32 %6 to i64, !dbg !3889
  %8 = mul i64 %7, 32, !dbg !3889
  %9 = load %struct.exit_function** @__exit_function_table, align 8, !dbg !3889
  %10 = bitcast %struct.exit_function* %9 to i8*, !dbg !3889
  %11 = call noalias i8* @realloc(i8* %10, i64 %8) nounwind, !dbg !3889
  %12 = bitcast i8* %11 to %struct.exit_function*, !dbg !3889
  store %struct.exit_function* %12, %struct.exit_function** %efp, align 8, !dbg !3889
  %13 = load %struct.exit_function** %efp, align 8, !dbg !3890
  %14 = icmp eq %struct.exit_function* %13, null, !dbg !3890
  br i1 %14, label %bb1, label %bb2, !dbg !3890

bb1:                                              ; preds = %bb
  store i32 12, i32* @errno, align 4, !dbg !3891
  br label %DONE, !dbg !3891

bb2:                                              ; preds = %bb
  %15 = load %struct.exit_function** %efp, align 8, !dbg !3892
  store %struct.exit_function* %15, %struct.exit_function** @__exit_function_table, align 8, !dbg !3892
  %16 = load i32* @__exit_slots, align 4, !dbg !3893
  %17 = add nsw i32 %16, 20, !dbg !3893
  store i32 %17, i32* @__exit_slots, align 4, !dbg !3893
  br label %bb3, !dbg !3893

bb3:                                              ; preds = %bb2, %entry
  store void (i32)* @__exit_handler, void (i32)** @__exit_cleanup, align 8, !dbg !3894
  %18 = load %struct.exit_function** @__exit_function_table, align 8, !dbg !3895
  %19 = load i32* @__exit_count, align 4, !dbg !3895
  %20 = sext i32 %19 to i64, !dbg !3895
  %21 = getelementptr inbounds %struct.exit_function* %18, i64 %20, !dbg !3895
  store %struct.exit_function* %21, %struct.exit_function** %efp, align 8, !dbg !3895
  %22 = add nsw i32 %19, 1, !dbg !3895
  store i32 %22, i32* @__exit_count, align 4, !dbg !3895
  %23 = load %struct.exit_function** %efp, align 8, !dbg !3896
  %24 = getelementptr inbounds %struct.exit_function* %23, i32 0, i32 0, !dbg !3896
  store i64 1, i64* %24, align 8, !dbg !3896
  br label %DONE, !dbg !3897

DONE:                                             ; preds = %bb3, %bb1
  %25 = load %struct.exit_function** %efp, align 8, !dbg !3898
  store %struct.exit_function* %25, %struct.exit_function** %0, align 8, !dbg !3898
  %26 = load %struct.exit_function** %0, align 8, !dbg !3898
  store %struct.exit_function* %26, %struct.exit_function** %retval, align 8, !dbg !3898
  %retval4 = load %struct.exit_function** %retval, !dbg !3898
  ret %struct.exit_function* %retval4, !dbg !3898
}

declare noalias i8* @realloc(i8*, i64) nounwind

define hidden void @__exit_handler(i32 %status) nounwind {
entry:
  %status_addr = alloca i32, align 4
  %efp = alloca %struct.exit_function*
  %"alloca point" = bitcast i32 0 to i32
  store i32 %status, i32* %status_addr
  br label %bb6, !dbg !3899

bb:                                               ; preds = %bb6
  %0 = load i32* @__exit_count, align 4, !dbg !3901
  %1 = sub nsw i32 %0, 1, !dbg !3901
  store i32 %1, i32* @__exit_count, align 4, !dbg !3901
  %2 = load i32* @__exit_count, align 4, !dbg !3901
  %3 = sext i32 %2 to i64, !dbg !3901
  %4 = getelementptr inbounds %struct.exit_function* %46, i64 %3, !dbg !3901
  store %struct.exit_function* %4, %struct.exit_function** %efp, align 8, !dbg !3901
  %5 = load %struct.exit_function** %efp, align 8, !dbg !3902
  %6 = getelementptr inbounds %struct.exit_function* %5, i32 0, i32 0, !dbg !3902
  %7 = load i64* %6, align 8, !dbg !3902
  switch i64 %7, label %bb6 [
    i64 2, label %bb1
    i64 3, label %bb4
  ], !dbg !3902

bb1:                                              ; preds = %bb
  %8 = load %struct.exit_function** %efp, align 8, !dbg !3903
  %9 = getelementptr inbounds %struct.exit_function* %8, i32 0, i32 1, !dbg !3903
  %10 = getelementptr inbounds %union.anon* %9, i32 0, i32 0, !dbg !3903
  %11 = bitcast %1* %10 to %struct.anon*, !dbg !3903
  %12 = getelementptr inbounds %struct.anon* %11, i32 0, i32 0, !dbg !3903
  %13 = load void (i32, i8*)** %12, align 8, !dbg !3903
  %14 = icmp ne void (i32, i8*)* %13, null, !dbg !3903
  br i1 %14, label %bb2, label %bb6, !dbg !3903

bb2:                                              ; preds = %bb1
  %15 = load %struct.exit_function** %efp, align 8, !dbg !3904
  %16 = getelementptr inbounds %struct.exit_function* %15, i32 0, i32 1, !dbg !3904
  %17 = getelementptr inbounds %union.anon* %16, i32 0, i32 0, !dbg !3904
  %18 = bitcast %1* %17 to %struct.anon*, !dbg !3904
  %19 = getelementptr inbounds %struct.anon* %18, i32 0, i32 0, !dbg !3904
  %20 = load void (i32, i8*)** %19, align 8, !dbg !3904
  %21 = load %struct.exit_function** %efp, align 8, !dbg !3904
  %22 = getelementptr inbounds %struct.exit_function* %21, i32 0, i32 1, !dbg !3904
  %23 = getelementptr inbounds %union.anon* %22, i32 0, i32 0, !dbg !3904
  %24 = bitcast %1* %23 to %struct.anon*, !dbg !3904
  %25 = getelementptr inbounds %struct.anon* %24, i32 0, i32 1, !dbg !3904
  %26 = load i8** %25, align 8, !dbg !3904
  %27 = load i32* %status_addr, align 4, !dbg !3904
  call void %20(i32 %27, i8* %26) nounwind, !dbg !3904
  br label %bb6, !dbg !3904

bb4:                                              ; preds = %bb
  %28 = load %struct.exit_function** %efp, align 8, !dbg !3905
  %29 = getelementptr inbounds %struct.exit_function* %28, i32 0, i32 1, !dbg !3905
  %30 = getelementptr inbounds %union.anon* %29, i32 0, i32 0, !dbg !3905
  %31 = getelementptr inbounds %1* %30, i32 0, i32 0, !dbg !3905
  %32 = load void (i8*)** %31, align 8, !dbg !3905
  %33 = icmp ne void (i8*)* %32, null, !dbg !3905
  br i1 %33, label %bb5, label %bb6, !dbg !3905

bb5:                                              ; preds = %bb4
  %34 = load %struct.exit_function** %efp, align 8, !dbg !3906
  %35 = getelementptr inbounds %struct.exit_function* %34, i32 0, i32 1, !dbg !3906
  %36 = getelementptr inbounds %union.anon* %35, i32 0, i32 0, !dbg !3906
  %37 = getelementptr inbounds %1* %36, i32 0, i32 0, !dbg !3906
  %38 = load void (i8*)** %37, align 8, !dbg !3906
  %39 = load %struct.exit_function** %efp, align 8, !dbg !3906
  %40 = getelementptr inbounds %struct.exit_function* %39, i32 0, i32 1, !dbg !3906
  %41 = getelementptr inbounds %union.anon* %40, i32 0, i32 0, !dbg !3906
  %42 = getelementptr inbounds %1* %41, i32 0, i32 1, !dbg !3906
  %43 = load i8** %42, align 8, !dbg !3906
  call void %38(i8* %43) nounwind, !dbg !3906
  br label %bb6, !dbg !3906

bb6:                                              ; preds = %bb1, %bb2, %bb5, %bb4, %bb, %entry
  %44 = load i32* @__exit_count, align 4, !dbg !3899
  %45 = icmp ne i32 %44, 0, !dbg !3899
  %46 = load %struct.exit_function** @__exit_function_table, align 8, !dbg !3901
  br i1 %45, label %bb, label %bb7, !dbg !3899

bb7:                                              ; preds = %bb6
  %47 = icmp ne %struct.exit_function* %46, null, !dbg !3907
  br i1 %47, label %bb8, label %return, !dbg !3907

bb8:                                              ; preds = %bb7
  %48 = load %struct.exit_function** @__exit_function_table, align 8, !dbg !3908
  %49 = bitcast %struct.exit_function* %48 to i8*, !dbg !3908
  call void @free(i8* %49) nounwind, !dbg !3908
  ret void, !dbg !3909

return:                                           ; preds = %bb7
  ret void, !dbg !3909
}

define weak i32* @__h_errno_location() nounwind readnone {
entry:
  %retval = alloca i32*
  %0 = alloca i32*
  %"alloca point" = bitcast i32 0 to i32
  store i32* @h_errno, i32** %0, align 8, !dbg !3910
  %1 = load i32** %0, align 8, !dbg !3910
  store i32* %1, i32** %retval, align 8, !dbg !3910
  %retval1 = load i32** %retval, !dbg !3910
  ret i32* %retval1, !dbg !3910
}

define hidden i64 @__stdio_READ(%struct.FILE* %stream, i8* %buf, i64 %bufsize) nounwind {
entry:
  %stream_addr = alloca %struct.FILE*, align 8
  %buf_addr = alloca i8*, align 8
  %bufsize_addr = alloca i64, align 8
  %retval = alloca i64
  %0 = alloca i64
  %rv = alloca i64
  %"alloca point" = bitcast i32 0 to i32
  store %struct.FILE* %stream, %struct.FILE** %stream_addr
  store i8* %buf, i8** %buf_addr
  store i64 %bufsize, i64* %bufsize_addr
  store i64 0, i64* %rv, align 8, !dbg !3912
  %1 = load %struct.FILE** %stream_addr, align 8, !dbg !3914
  %2 = getelementptr inbounds %struct.FILE* %1, i32 0, i32 0, !dbg !3914
  %3 = load i16* %2, align 8, !dbg !3914
  %4 = zext i16 %3 to i32, !dbg !3914
  %5 = and i32 %4, 4, !dbg !3914
  %6 = icmp eq i32 %5, 0, !dbg !3914
  br i1 %6, label %bb, label %bb6, !dbg !3914

bb:                                               ; preds = %entry
  %7 = load i64* %bufsize_addr, align 8, !dbg !3915
  %8 = icmp slt i64 %7, 0, !dbg !3915
  br i1 %8, label %bb1, label %bb2, !dbg !3915

bb1:                                              ; preds = %bb
  store i64 9223372036854775807, i64* %bufsize_addr, align 8, !dbg !3916
  br label %bb2, !dbg !3916

bb2:                                              ; preds = %bb1, %bb
  %9 = load %struct.FILE** %stream_addr, align 8, !dbg !3917
  %10 = getelementptr inbounds %struct.FILE* %9, i32 0, i32 2, !dbg !3917
  %11 = load i32* %10, align 4, !dbg !3917
  %12 = load i8** %buf_addr, align 8, !dbg !3917
  %13 = load i64* %bufsize_addr, align 8, !dbg !3917
  %14 = call i64 @read(i32 %11, i8* %12, i64 %13) nounwind, !dbg !3917
  store i64 %14, i64* %rv, align 8, !dbg !3917
  %15 = load i64* %rv, align 8, !dbg !3917
  %16 = icmp sle i64 %15, 0, !dbg !3917
  br i1 %16, label %bb3, label %bb6, !dbg !3917

bb3:                                              ; preds = %bb2
  %17 = load i64* %rv, align 8, !dbg !3918
  %18 = icmp eq i64 %17, 0, !dbg !3918
  %19 = load %struct.FILE** %stream_addr, align 8, !dbg !3919
  %20 = getelementptr inbounds %struct.FILE* %19, i32 0, i32 0, !dbg !3919
  %21 = load i16* %20, align 8, !dbg !3919
  br i1 %18, label %bb4, label %bb5, !dbg !3918

bb4:                                              ; preds = %bb3
  %22 = or i16 %21, 4, !dbg !3919
  %23 = load %struct.FILE** %stream_addr, align 8, !dbg !3919
  %24 = getelementptr inbounds %struct.FILE* %23, i32 0, i32 0, !dbg !3919
  store i16 %22, i16* %24, align 8, !dbg !3919
  br label %bb6, !dbg !3919

bb5:                                              ; preds = %bb3
  %25 = or i16 %21, 8, !dbg !3920
  %26 = load %struct.FILE** %stream_addr, align 8, !dbg !3920
  %27 = getelementptr inbounds %struct.FILE* %26, i32 0, i32 0, !dbg !3920
  store i16 %25, i16* %27, align 8, !dbg !3920
  store i64 0, i64* %rv, align 8, !dbg !3921
  br label %bb6, !dbg !3921

bb6:                                              ; preds = %bb5, %bb4, %bb2, %entry
  %28 = load i64* %rv, align 8, !dbg !3922
  store i64 %28, i64* %0, align 8, !dbg !3922
  %29 = load i64* %0, align 8, !dbg !3922
  store i64 %29, i64* %retval, align 8, !dbg !3922
  %retval7 = load i64* %retval, !dbg !3922
  ret i64 %retval7, !dbg !3922
}

define hidden i64 @__stdio_WRITE(%struct.FILE* %stream, i8* %buf, i64 %bufsize) nounwind {
entry:
  %stream_addr = alloca %struct.FILE*, align 8
  %buf_addr = alloca i8*, align 8
  %bufsize_addr = alloca i64, align 8
  %retval = alloca i64
  %iftmp.0 = alloca i64
  %0 = alloca i64
  %todo = alloca i64
  %rv = alloca i64
  %stodo = alloca i64
  %s = alloca i8*
  %"alloca point" = bitcast i32 0 to i32
  store %struct.FILE* %stream, %struct.FILE** %stream_addr
  store i8* %buf, i8** %buf_addr
  store i64 %bufsize, i64* %bufsize_addr
  %1 = load i64* %bufsize_addr, align 8, !dbg !3923
  store i64 %1, i64* %todo, align 8, !dbg !3923
  br label %bb, !dbg !3923

bb:                                               ; preds = %bb6, %entry
  %2 = load i64* %todo, align 8, !dbg !3925
  %3 = icmp eq i64 %2, 0, !dbg !3925
  br i1 %3, label %bb1, label %bb2, !dbg !3925

bb1:                                              ; preds = %bb
  %4 = load i64* %bufsize_addr, align 8, !dbg !3926
  store i64 %4, i64* %0, align 8, !dbg !3926
  br label %bb16, !dbg !3926

bb2:                                              ; preds = %bb
  %5 = load i64* %todo, align 8, !dbg !3927
  %6 = icmp sge i64 %5, 0, !dbg !3927
  br i1 %6, label %bb3, label %bb4, !dbg !3927

bb3:                                              ; preds = %bb2
  %7 = load i64* %todo, align 8, !dbg !3927
  store i64 %7, i64* %iftmp.0, align 8, !dbg !3927
  br label %bb5, !dbg !3927

bb4:                                              ; preds = %bb2
  store i64 9223372036854775807, i64* %iftmp.0, align 8, !dbg !3927
  br label %bb5, !dbg !3927

bb5:                                              ; preds = %bb4, %bb3
  %8 = load i64* %iftmp.0, align 8, !dbg !3927
  store i64 %8, i64* %stodo, align 8, !dbg !3927
  %9 = load i64* %stodo, align 8, !dbg !3928
  %10 = load %struct.FILE** %stream_addr, align 8, !dbg !3928
  %11 = getelementptr inbounds %struct.FILE* %10, i32 0, i32 2, !dbg !3928
  %12 = load i32* %11, align 4, !dbg !3928
  %13 = load i8** %buf_addr, align 8, !dbg !3928
  %14 = call i64 @write(i32 %12, i8* %13, i64 %9) nounwind, !dbg !3928
  store i64 %14, i64* %rv, align 8, !dbg !3928
  %15 = load i64* %rv, align 8, !dbg !3928
  %16 = icmp sge i64 %15, 0, !dbg !3928
  br i1 %16, label %bb6, label %bb7, !dbg !3928

bb6:                                              ; preds = %bb5
  %17 = load i64* %rv, align 8, !dbg !3929
  %18 = load i64* %todo, align 8, !dbg !3929
  %19 = sub i64 %18, %17, !dbg !3929
  store i64 %19, i64* %todo, align 8, !dbg !3929
  %20 = load i8** %buf_addr, align 8, !dbg !3930
  %21 = load i64* %rv, align 8, !dbg !3930
  %22 = getelementptr inbounds i8* %20, i64 %21, !dbg !3930
  store i8* %22, i8** %buf_addr, align 8, !dbg !3930
  br label %bb, !dbg !3930

bb7:                                              ; preds = %bb5
  %23 = load %struct.FILE** %stream_addr, align 8, !dbg !3931
  %24 = getelementptr inbounds %struct.FILE* %23, i32 0, i32 0, !dbg !3931
  %25 = load i16* %24, align 8, !dbg !3931
  %26 = or i16 %25, 8, !dbg !3931
  %27 = load %struct.FILE** %stream_addr, align 8, !dbg !3931
  %28 = getelementptr inbounds %struct.FILE* %27, i32 0, i32 0, !dbg !3931
  store i16 %26, i16* %28, align 8, !dbg !3931
  %29 = load %struct.FILE** %stream_addr, align 8, !dbg !3932
  %30 = getelementptr inbounds %struct.FILE* %29, i32 0, i32 4, !dbg !3932
  %31 = load i8** %30, align 8, !dbg !3932
  %32 = ptrtoint i8* %31 to i64, !dbg !3932
  %33 = load %struct.FILE** %stream_addr, align 8, !dbg !3932
  %34 = getelementptr inbounds %struct.FILE* %33, i32 0, i32 3, !dbg !3932
  %35 = load i8** %34, align 8, !dbg !3932
  %36 = ptrtoint i8* %35 to i64, !dbg !3932
  %37 = sub nsw i64 %32, %36, !dbg !3932
  store i64 %37, i64* %stodo, align 8, !dbg !3932
  %38 = load i64* %stodo, align 8, !dbg !3932
  %39 = icmp ne i64 %38, 0, !dbg !3932
  br i1 %39, label %bb8, label %bb15, !dbg !3932

bb8:                                              ; preds = %bb7
  %40 = load i64* %stodo, align 8, !dbg !3933
  %41 = load i64* %todo, align 8, !dbg !3933
  %42 = icmp ugt i64 %40, %41, !dbg !3933
  br i1 %42, label %bb9, label %bb10, !dbg !3933

bb9:                                              ; preds = %bb8
  %43 = load i64* %todo, align 8, !dbg !3935
  store i64 %43, i64* %stodo, align 8, !dbg !3935
  br label %bb10, !dbg !3935

bb10:                                             ; preds = %bb9, %bb8
  %44 = load %struct.FILE** %stream_addr, align 8, !dbg !3936
  %45 = getelementptr inbounds %struct.FILE* %44, i32 0, i32 3, !dbg !3936
  %46 = load i8** %45, align 8, !dbg !3936
  store i8* %46, i8** %s, align 8, !dbg !3936
  br label %bb11, !dbg !3936

bb11:                                             ; preds = %bb13, %bb10
  %47 = load i8** %buf_addr, align 8, !dbg !3937
  %48 = load i8* %47, align 1, !dbg !3937
  %49 = load i8** %s, align 8, !dbg !3937
  store i8 %48, i8* %49, align 1, !dbg !3937
  %50 = load i8** %s, align 8, !dbg !3937
  %51 = load i8* %50, align 1, !dbg !3937
  %52 = icmp eq i8 %51, 10, !dbg !3937
  br i1 %52, label %bb12, label %bb13, !dbg !3937

bb12:                                             ; preds = %bb11
  %53 = load %struct.FILE** %stream_addr, align 8, !dbg !3937
  %54 = getelementptr inbounds %struct.FILE* %53, i32 0, i32 0, !dbg !3937
  %55 = load i16* %54, align 8, !dbg !3937
  %56 = zext i16 %55 to i32, !dbg !3937
  %57 = and i32 %56, 256, !dbg !3937
  %58 = icmp ne i32 %57, 0, !dbg !3937
  br i1 %58, label %bb14, label %bb13, !dbg !3937

bb13:                                             ; preds = %bb12, %bb11
  %59 = load i8** %s, align 8, !dbg !3938
  %60 = getelementptr inbounds i8* %59, i64 1, !dbg !3938
  store i8* %60, i8** %s, align 8, !dbg !3938
  %61 = load i8** %buf_addr, align 8, !dbg !3939
  %62 = getelementptr inbounds i8* %61, i64 1, !dbg !3939
  store i8* %62, i8** %buf_addr, align 8, !dbg !3939
  %63 = load i64* %stodo, align 8, !dbg !3940
  %64 = sub nsw i64 %63, 1, !dbg !3940
  store i64 %64, i64* %stodo, align 8, !dbg !3940
  %65 = load i64* %stodo, align 8, !dbg !3940
  %66 = icmp ne i64 %65, 0, !dbg !3940
  br i1 %66, label %bb11, label %bb14, !dbg !3940

bb14:                                             ; preds = %bb13, %bb12
  %67 = load %struct.FILE** %stream_addr, align 8, !dbg !3941
  %68 = getelementptr inbounds %struct.FILE* %67, i32 0, i32 5, !dbg !3941
  %69 = load i8** %s, align 8, !dbg !3941
  store i8* %69, i8** %68, align 8, !dbg !3941
  %70 = load i8** %s, align 8, !dbg !3942
  %71 = ptrtoint i8* %70 to i64, !dbg !3942
  %72 = load %struct.FILE** %stream_addr, align 8, !dbg !3942
  %73 = getelementptr inbounds %struct.FILE* %72, i32 0, i32 3, !dbg !3942
  %74 = load i8** %73, align 8, !dbg !3942
  %75 = ptrtoint i8* %74 to i64, !dbg !3942
  %76 = sub nsw i64 %71, %75, !dbg !3942
  %77 = load i64* %todo, align 8, !dbg !3942
  %78 = sub i64 %77, %76, !dbg !3942
  store i64 %78, i64* %todo, align 8, !dbg !3942
  br label %bb15, !dbg !3942

bb15:                                             ; preds = %bb14, %bb7
  %79 = load i64* %bufsize_addr, align 8, !dbg !3943
  %80 = load i64* %todo, align 8, !dbg !3943
  %81 = sub i64 %79, %80, !dbg !3943
  store i64 %81, i64* %0, align 8, !dbg !3943
  br label %bb16, !dbg !3943

bb16:                                             ; preds = %bb15, %bb1
  %82 = load i64* %0, align 8, !dbg !3926
  store i64 %82, i64* %retval, align 8, !dbg !3926
  %retval17 = load i64* %retval, !dbg !3926
  ret i64 %retval17, !dbg !3926
}

define hidden i64 @__stdio_rfill(%struct.FILE* noalias %stream) nounwind {
entry:
  %stream_addr = alloca %struct.FILE*, align 8
  %retval = alloca i64
  %0 = alloca i64
  %rv = alloca i64
  %"alloca point" = bitcast i32 0 to i32
  store %struct.FILE* %stream, %struct.FILE** %stream_addr
  %1 = load %struct.FILE** %stream_addr, align 8, !dbg !3944
  %2 = getelementptr inbounds %struct.FILE* %1, i32 0, i32 4, !dbg !3944
  %3 = load i8** %2, align 8, !dbg !3944
  %4 = ptrtoint i8* %3 to i64, !dbg !3944
  %5 = load %struct.FILE** %stream_addr, align 8, !dbg !3944
  %6 = getelementptr inbounds %struct.FILE* %5, i32 0, i32 3, !dbg !3944
  %7 = load i8** %6, align 8, !dbg !3944
  %8 = ptrtoint i8* %7 to i64, !dbg !3944
  %9 = sub nsw i64 %4, %8, !dbg !3944
  %10 = load %struct.FILE** %stream_addr, align 8, !dbg !3944
  %11 = getelementptr inbounds %struct.FILE* %10, i32 0, i32 3, !dbg !3944
  %12 = load i8** %11, align 8, !dbg !3944
  %13 = load %struct.FILE** %stream_addr, align 8, !dbg !3944
  %14 = call i64 @__stdio_READ(%struct.FILE* %13, i8* %12, i64 %9) nounwind, !dbg !3944
  store i64 %14, i64* %rv, align 8, !dbg !3944
  %15 = load %struct.FILE** %stream_addr, align 8, !dbg !3946
  %16 = getelementptr inbounds %struct.FILE* %15, i32 0, i32 3, !dbg !3946
  %17 = load i8** %16, align 8, !dbg !3946
  %18 = load %struct.FILE** %stream_addr, align 8, !dbg !3946
  %19 = getelementptr inbounds %struct.FILE* %18, i32 0, i32 5, !dbg !3946
  store i8* %17, i8** %19, align 8, !dbg !3946
  %20 = load %struct.FILE** %stream_addr, align 8, !dbg !3947
  %21 = getelementptr inbounds %struct.FILE* %20, i32 0, i32 3, !dbg !3947
  %22 = load i8** %21, align 8, !dbg !3947
  %23 = load i64* %rv, align 8, !dbg !3947
  %24 = getelementptr inbounds i8* %22, i64 %23, !dbg !3947
  %25 = load %struct.FILE** %stream_addr, align 8, !dbg !3947
  %26 = getelementptr inbounds %struct.FILE* %25, i32 0, i32 6, !dbg !3947
  store i8* %24, i8** %26, align 8, !dbg !3947
  %27 = load i64* %rv, align 8, !dbg !3948
  store i64 %27, i64* %0, align 8, !dbg !3948
  %28 = load i64* %0, align 8, !dbg !3948
  store i64 %28, i64* %retval, align 8, !dbg !3948
  %retval1 = load i64* %retval, !dbg !3948
  ret i64 %retval1, !dbg !3948
}

define hidden i32 @__stdio_trans2w_o(%struct.FILE* noalias %stream, i32 %oflag) nounwind {
entry:
  %stream_addr = alloca %struct.FILE*, align 8
  %oflag_addr = alloca i32, align 4
  %retval = alloca i32
  %iftmp.0 = alloca i32
  %0 = alloca i32
  %"alloca point" = bitcast i32 0 to i32
  store %struct.FILE* %stream, %struct.FILE** %stream_addr
  store i32 %oflag, i32* %oflag_addr
  %1 = load %struct.FILE** %stream_addr, align 8, !dbg !3949
  %2 = getelementptr inbounds %struct.FILE* %1, i32 0, i32 0, !dbg !3949
  %3 = load i16* %2, align 8, !dbg !3949
  %4 = zext i16 %3 to i32, !dbg !3949
  %5 = load i32* %oflag_addr, align 4, !dbg !3949
  %6 = and i32 %4, %5, !dbg !3949
  %7 = icmp eq i32 %6, 0, !dbg !3949
  br i1 %7, label %bb, label %bb2, !dbg !3949

bb:                                               ; preds = %entry
  %8 = load %struct.FILE** %stream_addr, align 8, !dbg !3951
  %9 = getelementptr inbounds %struct.FILE* %8, i32 0, i32 0, !dbg !3951
  %10 = load i16* %9, align 8, !dbg !3951
  %11 = zext i16 %10 to i32, !dbg !3951
  %12 = and i32 %11, 2176, !dbg !3951
  %13 = icmp ne i32 %12, 0, !dbg !3951
  br i1 %13, label %DO_EBADF, label %bb1, !dbg !3951

bb1:                                              ; preds = %bb
  %14 = load %struct.FILE** %stream_addr, align 8, !dbg !3952
  %15 = getelementptr inbounds %struct.FILE* %14, i32 0, i32 0, !dbg !3952
  %16 = load i16* %15, align 8, !dbg !3952
  %17 = load i32* %oflag_addr, align 4, !dbg !3952
  %18 = trunc i32 %17 to i16, !dbg !3952
  %19 = or i16 %16, %18, !dbg !3952
  %20 = load %struct.FILE** %stream_addr, align 8, !dbg !3952
  %21 = getelementptr inbounds %struct.FILE* %20, i32 0, i32 0, !dbg !3952
  store i16 %19, i16* %21, align 8, !dbg !3952
  br label %bb2, !dbg !3952

bb2:                                              ; preds = %bb1, %entry
  %22 = load %struct.FILE** %stream_addr, align 8, !dbg !3953
  %23 = getelementptr inbounds %struct.FILE* %22, i32 0, i32 0, !dbg !3953
  %24 = load i16* %23, align 8, !dbg !3953
  %25 = zext i16 %24 to i32, !dbg !3953
  %26 = and i32 %25, 32, !dbg !3953
  %27 = icmp ne i32 %26, 0, !dbg !3953
  br i1 %27, label %DO_EBADF, label %bb3, !dbg !3953

DO_EBADF:                                         ; preds = %bb2, %bb
  store i32 9, i32* @errno, align 4, !dbg !3954
  br label %ERROR, !dbg !3955

ERROR:                                            ; preds = %bb10, %DO_EBADF
  %28 = load %struct.FILE** %stream_addr, align 8, !dbg !3956
  %29 = getelementptr inbounds %struct.FILE* %28, i32 0, i32 0, !dbg !3956
  %30 = load i16* %29, align 8, !dbg !3956
  %31 = or i16 %30, 8, !dbg !3956
  %32 = load %struct.FILE** %stream_addr, align 8, !dbg !3956
  %33 = getelementptr inbounds %struct.FILE* %32, i32 0, i32 0, !dbg !3956
  store i16 %31, i16* %33, align 8, !dbg !3956
  store i32 -1, i32* %0, align 4, !dbg !3957
  br label %bb15, !dbg !3957

bb3:                                              ; preds = %bb2
  %34 = load %struct.FILE** %stream_addr, align 8, !dbg !3958
  %35 = getelementptr inbounds %struct.FILE* %34, i32 0, i32 0, !dbg !3958
  %36 = load i16* %35, align 8, !dbg !3958
  %37 = zext i16 %36 to i32, !dbg !3958
  %38 = and i32 %37, 3, !dbg !3958
  %39 = icmp ne i32 %38, 0, !dbg !3958
  br i1 %39, label %bb4, label %bb12, !dbg !3958

bb4:                                              ; preds = %bb3
  %40 = load %struct.FILE** %stream_addr, align 8, !dbg !3959
  %41 = getelementptr inbounds %struct.FILE* %40, i32 0, i32 0, !dbg !3959
  %42 = load i16* %41, align 8, !dbg !3959
  %43 = zext i16 %42 to i32, !dbg !3959
  %44 = and i32 %43, 4, !dbg !3959
  %45 = icmp eq i32 %44, 0, !dbg !3959
  br i1 %45, label %bb5, label %bb11, !dbg !3959

bb5:                                              ; preds = %bb4
  %46 = load %struct.FILE** %stream_addr, align 8, !dbg !3960
  %47 = getelementptr inbounds %struct.FILE* %46, i32 0, i32 6, !dbg !3960
  %48 = load i8** %47, align 8, !dbg !3960
  %49 = load %struct.FILE** %stream_addr, align 8, !dbg !3960
  %50 = getelementptr inbounds %struct.FILE* %49, i32 0, i32 5, !dbg !3960
  %51 = load i8** %50, align 8, !dbg !3960
  %52 = icmp ne i8* %48, %51, !dbg !3960
  br i1 %52, label %bb7, label %bb6, !dbg !3960

bb6:                                              ; preds = %bb5
  %53 = load %struct.FILE** %stream_addr, align 8, !dbg !3960
  %54 = getelementptr inbounds %struct.FILE* %53, i32 0, i32 0, !dbg !3960
  %55 = load i16* %54, align 8, !dbg !3960
  %56 = zext i16 %55 to i32, !dbg !3960
  %57 = and i32 %56, 2, !dbg !3960
  %58 = icmp ne i32 %57, 0, !dbg !3960
  br i1 %58, label %bb7, label %bb11, !dbg !3960

bb7:                                              ; preds = %bb6, %bb5
  %59 = load %struct.FILE** %stream_addr, align 8, !dbg !3960
  %60 = getelementptr inbounds %struct.FILE* %59, i32 0, i32 0, !dbg !3960
  %61 = load i16* %60, align 8, !dbg !3960
  %62 = zext i16 %61 to i32, !dbg !3960
  %63 = and i32 %62, 1024, !dbg !3960
  %64 = icmp ne i32 %63, 0, !dbg !3960
  br i1 %64, label %bb8, label %bb9, !dbg !3960

bb8:                                              ; preds = %bb7
  store i32 2, i32* %iftmp.0, align 4, !dbg !3960
  br label %bb10, !dbg !3960

bb9:                                              ; preds = %bb7
  store i32 1, i32* %iftmp.0, align 4, !dbg !3960
  br label %bb10, !dbg !3960

bb10:                                             ; preds = %bb9, %bb8
  %65 = load %struct.FILE** %stream_addr, align 8, !dbg !3960
  %66 = load i32* %iftmp.0, align 4, !dbg !3960
  %67 = call i32 @fseek(%struct.FILE* %65, i64 0, i32 %66) nounwind, !dbg !3960
  %68 = icmp ne i32 %67, 0, !dbg !3960
  br i1 %68, label %ERROR, label %bb11, !dbg !3960

bb11:                                             ; preds = %bb10, %bb6, %bb4
  %69 = load %struct.FILE** %stream_addr, align 8, !dbg !3961
  %70 = getelementptr inbounds %struct.FILE* %69, i32 0, i32 0, !dbg !3961
  %71 = load i16* %70, align 8, !dbg !3961
  %72 = and i16 %71, -4, !dbg !3961
  %73 = load %struct.FILE** %stream_addr, align 8, !dbg !3961
  %74 = getelementptr inbounds %struct.FILE* %73, i32 0, i32 0, !dbg !3961
  store i16 %72, i16* %74, align 8, !dbg !3961
  %75 = load %struct.FILE** %stream_addr, align 8, !dbg !3962
  %76 = getelementptr inbounds %struct.FILE* %75, i32 0, i32 3, !dbg !3962
  %77 = load i8** %76, align 8, !dbg !3962
  %78 = load %struct.FILE** %stream_addr, align 8, !dbg !3962
  %79 = getelementptr inbounds %struct.FILE* %78, i32 0, i32 7, !dbg !3962
  store i8* %77, i8** %79, align 8, !dbg !3962
  %80 = load %struct.FILE** %stream_addr, align 8, !dbg !3963
  %81 = getelementptr inbounds %struct.FILE* %80, i32 0, i32 3, !dbg !3963
  %82 = load i8** %81, align 8, !dbg !3963
  %83 = load %struct.FILE** %stream_addr, align 8, !dbg !3963
  %84 = getelementptr inbounds %struct.FILE* %83, i32 0, i32 5, !dbg !3963
  store i8* %82, i8** %84, align 8, !dbg !3963
  %85 = load %struct.FILE** %stream_addr, align 8, !dbg !3963
  %86 = getelementptr inbounds %struct.FILE* %85, i32 0, i32 5, !dbg !3963
  %87 = load i8** %86, align 8, !dbg !3963
  %88 = load %struct.FILE** %stream_addr, align 8, !dbg !3963
  %89 = getelementptr inbounds %struct.FILE* %88, i32 0, i32 6, !dbg !3963
  store i8* %87, i8** %89, align 8, !dbg !3963
  br label %bb12, !dbg !3963

bb12:                                             ; preds = %bb11, %bb3
  %90 = load %struct.FILE** %stream_addr, align 8, !dbg !3964
  %91 = getelementptr inbounds %struct.FILE* %90, i32 0, i32 0, !dbg !3964
  %92 = load i16* %91, align 8, !dbg !3964
  %93 = or i16 %92, 64, !dbg !3964
  %94 = load %struct.FILE** %stream_addr, align 8, !dbg !3964
  %95 = getelementptr inbounds %struct.FILE* %94, i32 0, i32 0, !dbg !3964
  store i16 %93, i16* %95, align 8, !dbg !3964
  %96 = load %struct.FILE** %stream_addr, align 8, !dbg !3965
  %97 = getelementptr inbounds %struct.FILE* %96, i32 0, i32 0, !dbg !3965
  %98 = load i16* %97, align 8, !dbg !3965
  %99 = zext i16 %98 to i32, !dbg !3965
  %100 = and i32 %99, 2816, !dbg !3965
  %101 = icmp eq i32 %100, 0, !dbg !3965
  br i1 %101, label %bb13, label %bb14, !dbg !3965

bb13:                                             ; preds = %bb12
  %102 = load %struct.FILE** %stream_addr, align 8, !dbg !3966
  %103 = getelementptr inbounds %struct.FILE* %102, i32 0, i32 4, !dbg !3966
  %104 = load i8** %103, align 8, !dbg !3966
  %105 = load %struct.FILE** %stream_addr, align 8, !dbg !3966
  %106 = getelementptr inbounds %struct.FILE* %105, i32 0, i32 8, !dbg !3966
  store i8* %104, i8** %106, align 8, !dbg !3966
  br label %bb14, !dbg !3966

bb14:                                             ; preds = %bb13, %bb12
  store i32 0, i32* %0, align 4, !dbg !3967
  br label %bb15, !dbg !3967

bb15:                                             ; preds = %bb14, %ERROR
  %107 = load i32* %0, align 4, !dbg !3957
  store i32 %107, i32* %retval, align 4, !dbg !3957
  %retval16 = load i32* %retval, !dbg !3957
  ret i32 %retval16, !dbg !3957
}

define hidden i32 @__stdio_trans2r_o(%struct.FILE* noalias %stream, i32 %oflag) nounwind {
entry:
  %stream_addr = alloca %struct.FILE*, align 8
  %oflag_addr = alloca i32, align 4
  %retval = alloca i32
  %0 = alloca i32
  %"alloca point" = bitcast i32 0 to i32
  store %struct.FILE* %stream, %struct.FILE** %stream_addr
  store i32 %oflag, i32* %oflag_addr
  %1 = load %struct.FILE** %stream_addr, align 8, !dbg !3968
  %2 = getelementptr inbounds %struct.FILE* %1, i32 0, i32 0, !dbg !3968
  %3 = load i16* %2, align 8, !dbg !3968
  %4 = zext i16 %3 to i32, !dbg !3968
  %5 = load i32* %oflag_addr, align 4, !dbg !3968
  %6 = and i32 %4, %5, !dbg !3968
  %7 = icmp eq i32 %6, 0, !dbg !3968
  br i1 %7, label %bb, label %bb2, !dbg !3968

bb:                                               ; preds = %entry
  %8 = load %struct.FILE** %stream_addr, align 8, !dbg !3970
  %9 = getelementptr inbounds %struct.FILE* %8, i32 0, i32 0, !dbg !3970
  %10 = load i16* %9, align 8, !dbg !3970
  %11 = zext i16 %10 to i32, !dbg !3970
  %12 = and i32 %11, 2176, !dbg !3970
  %13 = icmp ne i32 %12, 0, !dbg !3970
  br i1 %13, label %DO_EBADF, label %bb1, !dbg !3970

bb1:                                              ; preds = %bb
  %14 = load %struct.FILE** %stream_addr, align 8, !dbg !3971
  %15 = getelementptr inbounds %struct.FILE* %14, i32 0, i32 0, !dbg !3971
  %16 = load i16* %15, align 8, !dbg !3971
  %17 = load i32* %oflag_addr, align 4, !dbg !3971
  %18 = trunc i32 %17 to i16, !dbg !3971
  %19 = or i16 %16, %18, !dbg !3971
  %20 = load %struct.FILE** %stream_addr, align 8, !dbg !3971
  %21 = getelementptr inbounds %struct.FILE* %20, i32 0, i32 0, !dbg !3971
  store i16 %19, i16* %21, align 8, !dbg !3971
  br label %bb2, !dbg !3971

bb2:                                              ; preds = %bb1, %entry
  %22 = load %struct.FILE** %stream_addr, align 8, !dbg !3972
  %23 = getelementptr inbounds %struct.FILE* %22, i32 0, i32 0, !dbg !3972
  %24 = load i16* %23, align 8, !dbg !3972
  %25 = zext i16 %24 to i32, !dbg !3972
  %26 = and i32 %25, 16, !dbg !3972
  %27 = icmp ne i32 %26, 0, !dbg !3972
  br i1 %27, label %DO_EBADF, label %bb3, !dbg !3972

DO_EBADF:                                         ; preds = %bb2, %bb
  store i32 9, i32* @errno, align 4, !dbg !3973
  br label %ERROR, !dbg !3974

ERROR:                                            ; preds = %bb4, %DO_EBADF
  %28 = load %struct.FILE** %stream_addr, align 8, !dbg !3975
  %29 = getelementptr inbounds %struct.FILE* %28, i32 0, i32 0, !dbg !3975
  %30 = load i16* %29, align 8, !dbg !3975
  %31 = or i16 %30, 8, !dbg !3975
  %32 = load %struct.FILE** %stream_addr, align 8, !dbg !3975
  %33 = getelementptr inbounds %struct.FILE* %32, i32 0, i32 0, !dbg !3975
  store i16 %31, i16* %33, align 8, !dbg !3975
  store i32 -1, i32* %0, align 4, !dbg !3976
  br label %bb7, !dbg !3976

bb3:                                              ; preds = %bb2
  %34 = load %struct.FILE** %stream_addr, align 8, !dbg !3977
  %35 = getelementptr inbounds %struct.FILE* %34, i32 0, i32 0, !dbg !3977
  %36 = load i16* %35, align 8, !dbg !3977
  %37 = zext i16 %36 to i32, !dbg !3977
  %38 = and i32 %37, 64, !dbg !3977
  %39 = icmp ne i32 %38, 0, !dbg !3977
  br i1 %39, label %bb4, label %bb6, !dbg !3977

bb4:                                              ; preds = %bb3
  %40 = load %struct.FILE** %stream_addr, align 8, !dbg !3978
  %41 = call i64 @__stdio_wcommit(%struct.FILE* noalias %40) nounwind, !dbg !3978
  %42 = icmp ne i64 %41, 0, !dbg !3978
  br i1 %42, label %ERROR, label %bb5, !dbg !3978

bb5:                                              ; preds = %bb4
  %43 = load %struct.FILE** %stream_addr, align 8, !dbg !3979
  %44 = getelementptr inbounds %struct.FILE* %43, i32 0, i32 3, !dbg !3979
  %45 = load i8** %44, align 8, !dbg !3979
  %46 = load %struct.FILE** %stream_addr, align 8, !dbg !3979
  %47 = getelementptr inbounds %struct.FILE* %46, i32 0, i32 8, !dbg !3979
  store i8* %45, i8** %47, align 8, !dbg !3979
  %48 = load %struct.FILE** %stream_addr, align 8, !dbg !3980
  %49 = getelementptr inbounds %struct.FILE* %48, i32 0, i32 0, !dbg !3980
  %50 = load i16* %49, align 8, !dbg !3980
  %51 = and i16 %50, -65, !dbg !3980
  %52 = load %struct.FILE** %stream_addr, align 8, !dbg !3980
  %53 = getelementptr inbounds %struct.FILE* %52, i32 0, i32 0, !dbg !3980
  store i16 %51, i16* %53, align 8, !dbg !3980
  br label %bb6, !dbg !3980

bb6:                                              ; preds = %bb5, %bb3
  %54 = load %struct.FILE** %stream_addr, align 8, !dbg !3981
  %55 = getelementptr inbounds %struct.FILE* %54, i32 0, i32 0, !dbg !3981
  %56 = load i16* %55, align 8, !dbg !3981
  %57 = or i16 %56, 1, !dbg !3981
  %58 = load %struct.FILE** %stream_addr, align 8, !dbg !3981
  %59 = getelementptr inbounds %struct.FILE* %58, i32 0, i32 0, !dbg !3981
  store i16 %57, i16* %59, align 8, !dbg !3981
  store i32 0, i32* %0, align 4, !dbg !3982
  br label %bb7, !dbg !3982

bb7:                                              ; preds = %bb6, %ERROR
  %60 = load i32* %0, align 4, !dbg !3976
  store i32 %60, i32* %retval, align 4, !dbg !3976
  %retval8 = load i32* %retval, !dbg !3976
  ret i32 %retval8, !dbg !3976
}

define hidden i64 @__stdio_wcommit(%struct.FILE* noalias %stream) nounwind {
entry:
  %stream_addr = alloca %struct.FILE*, align 8
  %retval = alloca i64
  %0 = alloca i64
  %bufsize = alloca i64
  %"alloca point" = bitcast i32 0 to i32
  store %struct.FILE* %stream, %struct.FILE** %stream_addr
  %1 = load %struct.FILE** %stream_addr, align 8, !dbg !3983
  %2 = getelementptr inbounds %struct.FILE* %1, i32 0, i32 5, !dbg !3983
  %3 = load i8** %2, align 8, !dbg !3983
  %4 = ptrtoint i8* %3 to i64, !dbg !3983
  %5 = load %struct.FILE** %stream_addr, align 8, !dbg !3983
  %6 = getelementptr inbounds %struct.FILE* %5, i32 0, i32 3, !dbg !3983
  %7 = load i8** %6, align 8, !dbg !3983
  %8 = ptrtoint i8* %7 to i64, !dbg !3983
  %9 = sub nsw i64 %4, %8, !dbg !3983
  store i64 %9, i64* %bufsize, align 8, !dbg !3983
  %10 = load i64* %bufsize, align 8, !dbg !3983
  %11 = icmp ne i64 %10, 0, !dbg !3983
  br i1 %11, label %bb, label %bb1, !dbg !3983

bb:                                               ; preds = %entry
  %12 = load %struct.FILE** %stream_addr, align 8, !dbg !3985
  %13 = getelementptr inbounds %struct.FILE* %12, i32 0, i32 3, !dbg !3985
  %14 = load i8** %13, align 8, !dbg !3985
  %15 = load %struct.FILE** %stream_addr, align 8, !dbg !3985
  %16 = getelementptr inbounds %struct.FILE* %15, i32 0, i32 5, !dbg !3985
  store i8* %14, i8** %16, align 8, !dbg !3985
  %17 = load %struct.FILE** %stream_addr, align 8, !dbg !3986
  %18 = getelementptr inbounds %struct.FILE* %17, i32 0, i32 3, !dbg !3986
  %19 = load i8** %18, align 8, !dbg !3986
  %20 = load %struct.FILE** %stream_addr, align 8, !dbg !3986
  %21 = load i64* %bufsize, align 8, !dbg !3986
  %22 = call i64 @__stdio_WRITE(%struct.FILE* %20, i8* %19, i64 %21) nounwind, !dbg !3986
  br label %bb1, !dbg !3986

bb1:                                              ; preds = %bb, %entry
  %23 = load %struct.FILE** %stream_addr, align 8, !dbg !3987
  %24 = getelementptr inbounds %struct.FILE* %23, i32 0, i32 5, !dbg !3987
  %25 = load i8** %24, align 8, !dbg !3987
  %26 = ptrtoint i8* %25 to i64, !dbg !3987
  %27 = load %struct.FILE** %stream_addr, align 8, !dbg !3987
  %28 = getelementptr inbounds %struct.FILE* %27, i32 0, i32 3, !dbg !3987
  %29 = load i8** %28, align 8, !dbg !3987
  %30 = ptrtoint i8* %29 to i64, !dbg !3987
  %31 = sub nsw i64 %26, %30, !dbg !3987
  store i64 %31, i64* %0, align 8, !dbg !3987
  %32 = load i64* %0, align 8, !dbg !3987
  store i64 %32, i64* %retval, align 8, !dbg !3987
  %retval2 = load i64* %retval, !dbg !3987
  ret i64 %retval2, !dbg !3987
}

define hidden void @_stdio_term() nounwind {
entry:
  %ptr = alloca %struct.FILE*
  %"alloca point" = bitcast i32 0 to i32
  %0 = load %struct.FILE** @_stdio_openlist, align 8, !dbg !3988
  store %struct.FILE* %0, %struct.FILE** %ptr, align 8, !dbg !3988
  br label %bb3, !dbg !3988

bb:                                               ; preds = %bb3
  %1 = load %struct.FILE** %ptr, align 8, !dbg !3990
  %2 = getelementptr inbounds %struct.FILE* %1, i32 0, i32 0, !dbg !3990
  %3 = load i16* %2, align 8, !dbg !3990
  %4 = zext i16 %3 to i32, !dbg !3990
  %5 = and i32 %4, 64, !dbg !3990
  %6 = icmp ne i32 %5, 0, !dbg !3990
  br i1 %6, label %bb1, label %bb2, !dbg !3990

bb1:                                              ; preds = %bb
  %7 = load %struct.FILE** %ptr, align 8, !dbg !3991
  %8 = call i64 @__stdio_wcommit(%struct.FILE* noalias %7) nounwind, !dbg !3991
  br label %bb2, !dbg !3991

bb2:                                              ; preds = %bb1, %bb
  %9 = load %struct.FILE** %ptr, align 8, !dbg !3988
  %10 = getelementptr inbounds %struct.FILE* %9, i32 0, i32 9, !dbg !3988
  %11 = load %struct.FILE** %10, align 8, !dbg !3988
  store %struct.FILE* %11, %struct.FILE** %ptr, align 8, !dbg !3988
  br label %bb3, !dbg !3988

bb3:                                              ; preds = %bb2, %entry
  %12 = load %struct.FILE** %ptr, align 8, !dbg !3988
  %13 = icmp ne %struct.FILE* %12, null, !dbg !3988
  br i1 %13, label %bb, label %return, !dbg !3988

return:                                           ; preds = %bb3
  ret void, !dbg !3992
}

define hidden void @_stdio_init() nounwind {
entry:
  %old_errno = alloca i32
  %"alloca point" = bitcast i32 0 to i32
  %0 = load i32* @errno, align 4, !dbg !3993
  store i32 %0, i32* %old_errno, align 4, !dbg !3993
  %1 = load i16* getelementptr inbounds ([3 x %struct.FILE]* @_stdio_streams, i64 0, i64 0, i32 0), align 8, !dbg !3995
  %2 = call i32 @isatty(i32 0) nounwind, !dbg !3995
  %3 = sub nsw i32 1, %2, !dbg !3995
  %4 = mul i32 %3, 256, !dbg !3995
  %5 = trunc i32 %4 to i16, !dbg !3995
  %6 = xor i16 %1, %5, !dbg !3995
  store i16 %6, i16* getelementptr inbounds ([3 x %struct.FILE]* @_stdio_streams, i64 0, i64 0, i32 0), align 8, !dbg !3995
  %7 = load i16* getelementptr inbounds ([3 x %struct.FILE]* @_stdio_streams, i64 0, i64 1, i32 0), align 8, !dbg !3996
  %8 = call i32 @isatty(i32 1) nounwind, !dbg !3996
  %9 = sub nsw i32 1, %8, !dbg !3996
  %10 = mul i32 %9, 256, !dbg !3996
  %11 = trunc i32 %10 to i16, !dbg !3996
  %12 = xor i16 %7, %11, !dbg !3996
  store i16 %12, i16* getelementptr inbounds ([3 x %struct.FILE]* @_stdio_streams, i64 0, i64 1, i32 0), align 8, !dbg !3996
  %13 = load i32* %old_errno, align 4, !dbg !3997
  store i32 %13, i32* @errno, align 4, !dbg !3997
  ret void, !dbg !3998
}

define void @exit(i32 %rv) noreturn nounwind {
entry:
  %rv_addr = alloca i32, align 4
  %"alloca point" = bitcast i32 0 to i32
  store i32 %rv, i32* %rv_addr
  %0 = load void (i32)** @__exit_cleanup, align 8, !dbg !3999
  %1 = icmp ne void (i32)* %0, null, !dbg !3999
  br i1 %1, label %bb, label %bb1, !dbg !3999

bb:                                               ; preds = %entry
  %2 = load void (i32)** @__exit_cleanup, align 8, !dbg !4001
  %3 = load i32* %rv_addr, align 4, !dbg !4001
  call void %2(i32 %3) nounwind, !dbg !4001
  br label %bb1, !dbg !4001

bb1:                                              ; preds = %bb, %entry
  call void @__uClibc_fini() nounwind, !dbg !4002
  call void @_stdio_term() nounwind, !dbg !4003
  %4 = load i32* %rv_addr, align 4, !dbg !4004
  call void @_exit(i32 %4) noreturn nounwind, !dbg !4004
  unreachable, !dbg !4004
}

define i32 @fflush_unlocked(%struct.FILE* %stream) nounwind {
entry:
  %stream_addr = alloca %struct.FILE*, align 8
  %retval = alloca i32
  %0 = alloca i32
  %retval1 = alloca i32
  %bufmask = alloca i16
  %"alloca point" = bitcast i32 0 to i32
  store %struct.FILE* %stream, %struct.FILE** %stream_addr
  store i32 0, i32* %retval1, align 4, !dbg !4005
  store i16 256, i16* %bufmask, align 2, !dbg !4007
  %1 = load %struct.FILE** %stream_addr, align 8, !dbg !4008
  %2 = icmp eq %struct.FILE* %1, bitcast (%struct.FILE** @_stdio_openlist to %struct.FILE*), !dbg !4008
  br i1 %2, label %bb, label %bb2, !dbg !4008

bb:                                               ; preds = %entry
  store %struct.FILE* null, %struct.FILE** %stream_addr, align 8, !dbg !4009
  store i16 0, i16* %bufmask, align 2, !dbg !4010
  br label %bb2, !dbg !4010

bb2:                                              ; preds = %bb, %entry
  %3 = load %struct.FILE** %stream_addr, align 8, !dbg !4011
  %4 = icmp eq %struct.FILE* %3, null, !dbg !4011
  br i1 %4, label %bb3, label %bb12, !dbg !4011

bb3:                                              ; preds = %bb2
  %5 = load %struct.FILE** @_stdio_openlist, align 8, !dbg !4012
  store %struct.FILE* %5, %struct.FILE** %stream_addr, align 8, !dbg !4012
  br label %bb10, !dbg !4012

bb4:                                              ; preds = %bb10
  %6 = load %struct.FILE** %stream_addr, align 8, !dbg !4013
  %7 = getelementptr inbounds %struct.FILE* %6, i32 0, i32 0, !dbg !4013
  %8 = load i16* %7, align 8, !dbg !4013
  %9 = zext i16 %8 to i32, !dbg !4013
  %10 = and i32 %9, 64, !dbg !4013
  %11 = icmp ne i32 %10, 0, !dbg !4013
  br i1 %11, label %bb5, label %bb9, !dbg !4013

bb5:                                              ; preds = %bb4
  %12 = load %struct.FILE** %stream_addr, align 8, !dbg !4014
  %13 = getelementptr inbounds %struct.FILE* %12, i32 0, i32 0, !dbg !4014
  %14 = load i16* %13, align 8, !dbg !4014
  %15 = load i16* %bufmask, align 2, !dbg !4014
  %16 = or i16 %14, %15, !dbg !4014
  %17 = xor i16 %16, 320, !dbg !4014
  %18 = zext i16 %17 to i32, !dbg !4014
  %19 = and i32 %18, 832, !dbg !4014
  %20 = icmp eq i32 %19, 0, !dbg !4014
  br i1 %20, label %bb6, label %bb9, !dbg !4014

bb6:                                              ; preds = %bb5
  %21 = load %struct.FILE** %stream_addr, align 8, !dbg !4015
  %22 = call i64 @__stdio_wcommit(%struct.FILE* noalias %21) nounwind, !dbg !4015
  %23 = icmp eq i64 %22, 0, !dbg !4015
  br i1 %23, label %bb7, label %bb8, !dbg !4015

bb7:                                              ; preds = %bb6
  %24 = load %struct.FILE** %stream_addr, align 8, !dbg !4016
  %25 = getelementptr inbounds %struct.FILE* %24, i32 0, i32 3, !dbg !4016
  %26 = load i8** %25, align 8, !dbg !4016
  %27 = load %struct.FILE** %stream_addr, align 8, !dbg !4016
  %28 = getelementptr inbounds %struct.FILE* %27, i32 0, i32 8, !dbg !4016
  store i8* %26, i8** %28, align 8, !dbg !4016
  %29 = load %struct.FILE** %stream_addr, align 8, !dbg !4017
  %30 = getelementptr inbounds %struct.FILE* %29, i32 0, i32 0, !dbg !4017
  %31 = load i16* %30, align 8, !dbg !4017
  %32 = and i16 %31, -65, !dbg !4017
  %33 = load %struct.FILE** %stream_addr, align 8, !dbg !4017
  %34 = getelementptr inbounds %struct.FILE* %33, i32 0, i32 0, !dbg !4017
  store i16 %32, i16* %34, align 8, !dbg !4017
  br label %bb9, !dbg !4017

bb8:                                              ; preds = %bb6
  store i32 -1, i32* %retval1, align 4, !dbg !4018
  br label %bb9, !dbg !4018

bb9:                                              ; preds = %bb8, %bb7, %bb5, %bb4
  %35 = load %struct.FILE** %stream_addr, align 8, !dbg !4019
  %36 = getelementptr inbounds %struct.FILE* %35, i32 0, i32 9, !dbg !4019
  %37 = load %struct.FILE** %36, align 8, !dbg !4019
  store %struct.FILE* %37, %struct.FILE** %stream_addr, align 8, !dbg !4019
  br label %bb10, !dbg !4019

bb10:                                             ; preds = %bb9, %bb3
  %38 = load %struct.FILE** %stream_addr, align 8, !dbg !4020
  %39 = icmp ne %struct.FILE* %38, null, !dbg !4020
  br i1 %39, label %bb4, label %bb16, !dbg !4020

bb12:                                             ; preds = %bb2
  %40 = load %struct.FILE** %stream_addr, align 8, !dbg !4021
  %41 = getelementptr inbounds %struct.FILE* %40, i32 0, i32 0, !dbg !4021
  %42 = load i16* %41, align 8, !dbg !4021
  %43 = zext i16 %42 to i32, !dbg !4021
  %44 = and i32 %43, 64, !dbg !4021
  %45 = icmp ne i32 %44, 0, !dbg !4021
  br i1 %45, label %bb13, label %bb16, !dbg !4021

bb13:                                             ; preds = %bb12
  %46 = load %struct.FILE** %stream_addr, align 8, !dbg !4022
  %47 = call i64 @__stdio_wcommit(%struct.FILE* noalias %46) nounwind, !dbg !4022
  %48 = icmp eq i64 %47, 0, !dbg !4022
  br i1 %48, label %bb14, label %bb15, !dbg !4022

bb14:                                             ; preds = %bb13
  %49 = load %struct.FILE** %stream_addr, align 8, !dbg !4023
  %50 = getelementptr inbounds %struct.FILE* %49, i32 0, i32 3, !dbg !4023
  %51 = load i8** %50, align 8, !dbg !4023
  %52 = load %struct.FILE** %stream_addr, align 8, !dbg !4023
  %53 = getelementptr inbounds %struct.FILE* %52, i32 0, i32 8, !dbg !4023
  store i8* %51, i8** %53, align 8, !dbg !4023
  %54 = load %struct.FILE** %stream_addr, align 8, !dbg !4024
  %55 = getelementptr inbounds %struct.FILE* %54, i32 0, i32 0, !dbg !4024
  %56 = load i16* %55, align 8, !dbg !4024
  %57 = and i16 %56, -65, !dbg !4024
  %58 = load %struct.FILE** %stream_addr, align 8, !dbg !4024
  %59 = getelementptr inbounds %struct.FILE* %58, i32 0, i32 0, !dbg !4024
  store i16 %57, i16* %59, align 8, !dbg !4024
  br label %bb16, !dbg !4024

bb15:                                             ; preds = %bb13
  store i32 -1, i32* %retval1, align 4, !dbg !4025
  br label %bb16, !dbg !4025

bb16:                                             ; preds = %bb10, %bb15, %bb14, %bb12
  %60 = load i32* %retval1, align 4, !dbg !4026
  store i32 %60, i32* %0, align 4, !dbg !4026
  %61 = load i32* %0, align 4, !dbg !4026
  store i32 %61, i32* %retval, align 4, !dbg !4026
  %retval17 = load i32* %retval, !dbg !4026
  ret i32 %retval17, !dbg !4026
}

define i8* @memcpy(i8* noalias %s1, i8* noalias %s2, i64 %n) nounwind {
entry:
  %s1_addr = alloca i8*, align 8
  %s2_addr = alloca i8*, align 8
  %n_addr = alloca i64, align 8
  %retval = alloca i8*
  %0 = alloca i8*
  %r1 = alloca i8*
  %r2 = alloca i8*
  %"alloca point" = bitcast i32 0 to i32
  store i8* %s1, i8** %s1_addr
  store i8* %s2, i8** %s2_addr
  store i64 %n, i64* %n_addr
  %1 = load i8** %s1_addr, align 8, !dbg !4027
  store i8* %1, i8** %r1, align 8, !dbg !4027
  %2 = load i8** %s2_addr, align 8, !dbg !4029
  store i8* %2, i8** %r2, align 8, !dbg !4029
  br label %bb1, !dbg !4029

bb:                                               ; preds = %bb1
  %3 = load i8** %r2, align 8, !dbg !4030
  %4 = load i8* %3, align 1, !dbg !4030
  %5 = load i8** %r1, align 8, !dbg !4030
  store i8 %4, i8* %5, align 1, !dbg !4030
  %6 = load i8** %r1, align 8, !dbg !4030
  %7 = getelementptr inbounds i8* %6, i64 1, !dbg !4030
  store i8* %7, i8** %r1, align 8, !dbg !4030
  %8 = load i8** %r2, align 8, !dbg !4030
  %9 = getelementptr inbounds i8* %8, i64 1, !dbg !4030
  store i8* %9, i8** %r2, align 8, !dbg !4030
  %10 = load i64* %n_addr, align 8, !dbg !4031
  %11 = sub i64 %10, 1, !dbg !4031
  store i64 %11, i64* %n_addr, align 8, !dbg !4031
  br label %bb1, !dbg !4031

bb1:                                              ; preds = %bb, %entry
  %12 = load i64* %n_addr, align 8, !dbg !4032
  %13 = icmp ne i64 %12, 0, !dbg !4032
  br i1 %13, label %bb, label %bb2, !dbg !4032

bb2:                                              ; preds = %bb1
  %14 = load i8** %s1_addr, align 8, !dbg !4033
  store i8* %14, i8** %0, align 8, !dbg !4033
  %15 = load i8** %0, align 8, !dbg !4033
  store i8* %15, i8** %retval, align 8, !dbg !4033
  %retval3 = load i8** %retval, !dbg !4033
  ret i8* %retval3, !dbg !4033
}

define i8* @memset(i8* %s, i32 %c, i64 %n) nounwind {
entry:
  %s_addr = alloca i8*, align 8
  %c_addr = alloca i32, align 4
  %n_addr = alloca i64, align 8
  %retval = alloca i8*
  %0 = alloca i8*
  %p = alloca i8*
  %"alloca point" = bitcast i32 0 to i32
  store i8* %s, i8** %s_addr
  store i32 %c, i32* %c_addr
  store i64 %n, i64* %n_addr
  %1 = load i8** %s_addr, align 8, !dbg !4034
  store i8* %1, i8** %p, align 8, !dbg !4034
  br label %bb1, !dbg !4034

bb:                                               ; preds = %bb1
  %2 = load i32* %c_addr, align 4, !dbg !4036
  %3 = trunc i32 %2 to i8, !dbg !4036
  %4 = load i8** %p, align 8, !dbg !4036
  store i8 %3, i8* %4, align 1, !dbg !4036
  %5 = load i8** %p, align 8, !dbg !4036
  %6 = getelementptr inbounds i8* %5, i64 1, !dbg !4036
  store i8* %6, i8** %p, align 8, !dbg !4036
  %7 = load i64* %n_addr, align 8, !dbg !4037
  %8 = sub i64 %7, 1, !dbg !4037
  store i64 %8, i64* %n_addr, align 8, !dbg !4037
  br label %bb1, !dbg !4037

bb1:                                              ; preds = %bb, %entry
  %9 = load i64* %n_addr, align 8, !dbg !4038
  %10 = icmp ne i64 %9, 0, !dbg !4038
  br i1 %10, label %bb, label %bb2, !dbg !4038

bb2:                                              ; preds = %bb1
  %11 = load i8** %s_addr, align 8, !dbg !4039
  store i8* %11, i8** %0, align 8, !dbg !4039
  %12 = load i8** %0, align 8, !dbg !4039
  store i8* %12, i8** %retval, align 8, !dbg !4039
  %retval3 = load i8** %retval, !dbg !4039
  ret i8* %retval3, !dbg !4039
}

define i8* @strcat(i8* noalias %s1, i8* noalias %s2) nounwind {
entry:
  %s1_addr = alloca i8*, align 8
  %s2_addr = alloca i8*, align 8
  %retval = alloca i8*
  %0 = alloca i8*
  %s = alloca i8*
  %"alloca point" = bitcast i32 0 to i32
  store i8* %s1, i8** %s1_addr
  store i8* %s2, i8** %s2_addr
  %1 = load i8** %s1_addr, align 8, !dbg !4040
  store i8* %1, i8** %s, align 8, !dbg !4040
  br label %bb, !dbg !4040

bb:                                               ; preds = %bb, %entry
  %2 = load i8** %s, align 8, !dbg !4042
  %3 = load i8* %2, align 1, !dbg !4042
  %4 = icmp ne i8 %3, 0, !dbg !4042
  %5 = zext i1 %4 to i8, !dbg !4042
  %6 = load i8** %s, align 8, !dbg !4042
  %7 = getelementptr inbounds i8* %6, i64 1, !dbg !4042
  store i8* %7, i8** %s, align 8, !dbg !4042
  %toBool = icmp ne i8 %5, 0, !dbg !4042
  br i1 %toBool, label %bb, label %bb1, !dbg !4042

bb1:                                              ; preds = %bb
  %8 = load i8** %s, align 8, !dbg !4043
  %9 = getelementptr inbounds i8* %8, i64 -1, !dbg !4043
  store i8* %9, i8** %s, align 8, !dbg !4043
  br label %bb2, !dbg !4043

bb2:                                              ; preds = %bb2, %bb1
  %10 = load i8** %s2_addr, align 8, !dbg !4044
  %11 = load i8* %10, align 1, !dbg !4044
  %12 = load i8** %s, align 8, !dbg !4044
  store i8 %11, i8* %12, align 1, !dbg !4044
  %13 = load i8** %s, align 8, !dbg !4044
  %14 = load i8* %13, align 1, !dbg !4044
  %15 = icmp ne i8 %14, 0, !dbg !4044
  %16 = zext i1 %15 to i8, !dbg !4044
  %17 = load i8** %s, align 8, !dbg !4044
  %18 = getelementptr inbounds i8* %17, i64 1, !dbg !4044
  store i8* %18, i8** %s, align 8, !dbg !4044
  %19 = load i8** %s2_addr, align 8, !dbg !4044
  %20 = getelementptr inbounds i8* %19, i64 1, !dbg !4044
  store i8* %20, i8** %s2_addr, align 8, !dbg !4044
  %toBool3 = icmp ne i8 %16, 0, !dbg !4044
  br i1 %toBool3, label %bb2, label %bb4, !dbg !4044

bb4:                                              ; preds = %bb2
  %21 = load i8** %s1_addr, align 8, !dbg !4045
  store i8* %21, i8** %0, align 8, !dbg !4045
  %22 = load i8** %0, align 8, !dbg !4045
  store i8* %22, i8** %retval, align 8, !dbg !4045
  %retval5 = load i8** %retval, !dbg !4045
  ret i8* %retval5, !dbg !4045
}

define i32 @strcmp(i8* %s1, i8* %s2) nounwind readonly {
entry:
  %s1_addr = alloca i8*, align 8
  %s2_addr = alloca i8*, align 8
  %retval = alloca i32
  %0 = alloca i32
  %r = alloca i32
  %"alloca point" = bitcast i32 0 to i32
  store i8* %s1, i8** %s1_addr
  store i8* %s2, i8** %s2_addr
  br label %bb, !dbg !4046

bb:                                               ; preds = %bb4, %entry
  %1 = load i8** %s1_addr, align 8, !dbg !4047
  %2 = load i8* %1, align 1, !dbg !4047
  %3 = zext i8 %2 to i32, !dbg !4047
  %4 = load i8** %s2_addr, align 8, !dbg !4047
  %5 = load i8* %4, align 1, !dbg !4047
  %6 = zext i8 %5 to i32, !dbg !4047
  %7 = sub nsw i32 %3, %6, !dbg !4047
  store i32 %7, i32* %r, align 4, !dbg !4047
  %8 = load i32* %r, align 4, !dbg !4047
  %9 = icmp eq i32 %8, 0, !dbg !4047
  %10 = zext i1 %9 to i8, !dbg !4047
  %11 = load i8** %s2_addr, align 8, !dbg !4047
  %12 = getelementptr inbounds i8* %11, i64 1, !dbg !4047
  store i8* %12, i8** %s2_addr, align 8, !dbg !4047
  %toBool = icmp ne i8 %10, 0, !dbg !4047
  %toBoolnot = xor i1 %toBool, true, !dbg !4047
  %toBoolnot1 = zext i1 %toBoolnot to i8, !dbg !4047
  %toBool3 = icmp ne i8 %toBoolnot1, 0, !dbg !4047
  br i1 %toBool3, label %bb6, label %bb4, !dbg !4047

bb4:                                              ; preds = %bb
  %13 = load i8** %s1_addr, align 8, !dbg !4047
  %14 = load i8* %13, align 1, !dbg !4047
  %15 = icmp ne i8 %14, 0, !dbg !4047
  %16 = zext i1 %15 to i8, !dbg !4047
  %17 = load i8** %s1_addr, align 8, !dbg !4047
  %18 = getelementptr inbounds i8* %17, i64 1, !dbg !4047
  store i8* %18, i8** %s1_addr, align 8, !dbg !4047
  %toBool5 = icmp ne i8 %16, 0, !dbg !4047
  br i1 %toBool5, label %bb, label %bb6, !dbg !4047

bb6:                                              ; preds = %bb4, %bb
  %19 = load i32* %r, align 4, !dbg !4049
  store i32 %19, i32* %0, align 4, !dbg !4049
  %20 = load i32* %0, align 4, !dbg !4049
  store i32 %20, i32* %retval, align 4, !dbg !4049
  %retval7 = load i32* %retval, !dbg !4049
  ret i32 %retval7, !dbg !4049
}

define i8* @strcpy(i8* noalias %s1, i8* noalias %s2) nounwind {
entry:
  %s1_addr = alloca i8*, align 8
  %s2_addr = alloca i8*, align 8
  %retval = alloca i8*
  %0 = alloca i8*
  %s = alloca i8*
  %"alloca point" = bitcast i32 0 to i32
  store i8* %s1, i8** %s1_addr
  store i8* %s2, i8** %s2_addr
  %1 = load i8** %s1_addr, align 8, !dbg !4050
  store i8* %1, i8** %s, align 8, !dbg !4050
  br label %bb, !dbg !4050

bb:                                               ; preds = %bb, %entry
  %2 = load i8** %s2_addr, align 8, !dbg !4052
  %3 = load i8* %2, align 1, !dbg !4052
  %4 = load i8** %s, align 8, !dbg !4052
  store i8 %3, i8* %4, align 1, !dbg !4052
  %5 = load i8** %s, align 8, !dbg !4052
  %6 = load i8* %5, align 1, !dbg !4052
  %7 = icmp ne i8 %6, 0, !dbg !4052
  %8 = zext i1 %7 to i8, !dbg !4052
  %9 = load i8** %s, align 8, !dbg !4052
  %10 = getelementptr inbounds i8* %9, i64 1, !dbg !4052
  store i8* %10, i8** %s, align 8, !dbg !4052
  %11 = load i8** %s2_addr, align 8, !dbg !4052
  %12 = getelementptr inbounds i8* %11, i64 1, !dbg !4052
  store i8* %12, i8** %s2_addr, align 8, !dbg !4052
  %toBool = icmp ne i8 %8, 0, !dbg !4052
  br i1 %toBool, label %bb, label %bb1, !dbg !4052

bb1:                                              ; preds = %bb
  %13 = load i8** %s1_addr, align 8, !dbg !4053
  store i8* %13, i8** %0, align 8, !dbg !4053
  %14 = load i8** %0, align 8, !dbg !4053
  store i8* %14, i8** %retval, align 8, !dbg !4053
  %retval2 = load i8** %retval, !dbg !4053
  ret i8* %retval2, !dbg !4053
}

define noalias i8* @strdup(i8* %s1) nounwind {
entry:
  %s1_addr = alloca i8*, align 8
  %retval = alloca i8*
  %0 = alloca i8*
  %s = alloca i8*
  %l = alloca i64
  %"alloca point" = bitcast i32 0 to i32
  store i8* %s1, i8** %s1_addr
  %1 = load i8** %s1_addr, align 8, !dbg !4054
  %2 = call i64 @strlen(i8* %1) nounwind readonly, !dbg !4054
  %3 = add i64 %2, 1, !dbg !4054
  store i64 %3, i64* %l, align 8, !dbg !4054
  %4 = load i64* %l, align 8, !dbg !4056
  %5 = call noalias i8* @malloc(i64 %4) nounwind, !dbg !4056
  store i8* %5, i8** %s, align 8, !dbg !4056
  %6 = load i8** %s, align 8, !dbg !4056
  %7 = icmp ne i8* %6, null, !dbg !4056
  br i1 %7, label %bb, label %bb1, !dbg !4056

bb:                                               ; preds = %entry
  %8 = load i8** %s, align 8, !dbg !4057
  %9 = load i8** %s1_addr, align 8, !dbg !4057
  %10 = load i64* %l, align 8, !dbg !4057
  %11 = call i8* @memcpy(i8* noalias %8, i8* noalias %9, i64 %10) nounwind, !dbg !4057
  br label %bb1, !dbg !4057

bb1:                                              ; preds = %bb, %entry
  %12 = load i8** %s, align 8, !dbg !4058
  store i8* %12, i8** %0, align 8, !dbg !4058
  %13 = load i8** %0, align 8, !dbg !4058
  store i8* %13, i8** %retval, align 8, !dbg !4058
  %retval2 = load i8** %retval, !dbg !4058
  ret i8* %retval2, !dbg !4058
}

declare noalias i8* @malloc(i64) nounwind

define i64 @strlen(i8* %s) nounwind readonly {
entry:
  %s_addr = alloca i8*, align 8
  %retval = alloca i64
  %0 = alloca i64
  %p = alloca i8*
  %"alloca point" = bitcast i32 0 to i32
  store i8* %s, i8** %s_addr
  %1 = load i8** %s_addr, align 8, !dbg !4059
  store i8* %1, i8** %p, align 8, !dbg !4059
  br label %bb1, !dbg !4059

bb:                                               ; preds = %bb1
  %2 = getelementptr inbounds i8* %6, i64 1, !dbg !4059
  store i8* %2, i8** %p, align 8, !dbg !4059
  br label %bb1, !dbg !4059

bb1:                                              ; preds = %bb, %entry
  %3 = load i8** %p, align 8, !dbg !4059
  %4 = load i8* %3, align 1, !dbg !4059
  %5 = icmp ne i8 %4, 0, !dbg !4059
  %6 = load i8** %p, align 8, !dbg !4059
  br i1 %5, label %bb, label %bb2, !dbg !4059

bb2:                                              ; preds = %bb1
  %7 = ptrtoint i8* %6 to i64, !dbg !4061
  %8 = load i8** %s_addr, align 8, !dbg !4061
  %9 = ptrtoint i8* %8 to i64, !dbg !4061
  %10 = sub nsw i64 %7, %9, !dbg !4061
  store i64 %10, i64* %0, align 8, !dbg !4061
  %11 = load i64* %0, align 8, !dbg !4061
  store i64 %11, i64* %retval, align 8, !dbg !4061
  %retval3 = load i64* %retval, !dbg !4061
  ret i64 %retval3, !dbg !4061
}

define i32 @strncmp(i8* %s1, i8* %s2, i64 %n) nounwind readonly {
entry:
  %s1_addr = alloca i8*, align 8
  %s2_addr = alloca i8*, align 8
  %n_addr = alloca i64, align 8
  %retval = alloca i32
  %0 = alloca i32
  %r = alloca i32
  %"alloca point" = bitcast i32 0 to i32
  store i8* %s1, i8** %s1_addr
  store i8* %s2, i8** %s2_addr
  store i64 %n, i64* %n_addr
  store i32 0, i32* %r, align 4, !dbg !4062
  br label %bb, !dbg !4062

bb:                                               ; preds = %bb5, %entry
  %1 = load i64* %n_addr, align 8, !dbg !4064
  %2 = sub i64 %1, 1, !dbg !4064
  store i64 %2, i64* %n_addr, align 8, !dbg !4064
  %3 = load i64* %n_addr, align 8, !dbg !4064
  %4 = icmp eq i64 %3, -1, !dbg !4064
  br i1 %4, label %bb7, label %bb1, !dbg !4064

bb1:                                              ; preds = %bb
  %5 = load i8** %s1_addr, align 8, !dbg !4064
  %6 = load i8* %5, align 1, !dbg !4064
  %7 = zext i8 %6 to i32, !dbg !4064
  %8 = load i8** %s2_addr, align 8, !dbg !4064
  %9 = load i8* %8, align 1, !dbg !4064
  %10 = zext i8 %9 to i32, !dbg !4064
  %11 = sub nsw i32 %7, %10, !dbg !4064
  store i32 %11, i32* %r, align 4, !dbg !4064
  %12 = load i32* %r, align 4, !dbg !4064
  %13 = icmp eq i32 %12, 0, !dbg !4064
  %14 = zext i1 %13 to i8, !dbg !4064
  %15 = load i8** %s2_addr, align 8, !dbg !4064
  %16 = getelementptr inbounds i8* %15, i64 1, !dbg !4064
  store i8* %16, i8** %s2_addr, align 8, !dbg !4064
  %toBool = icmp ne i8 %14, 0, !dbg !4064
  %toBoolnot = xor i1 %toBool, true, !dbg !4064
  %toBoolnot2 = zext i1 %toBoolnot to i8, !dbg !4064
  %toBool4 = icmp ne i8 %toBoolnot2, 0, !dbg !4064
  br i1 %toBool4, label %bb7, label %bb5, !dbg !4064

bb5:                                              ; preds = %bb1
  %17 = load i8** %s1_addr, align 8, !dbg !4064
  %18 = load i8* %17, align 1, !dbg !4064
  %19 = icmp ne i8 %18, 0, !dbg !4064
  %20 = zext i1 %19 to i8, !dbg !4064
  %21 = load i8** %s1_addr, align 8, !dbg !4064
  %22 = getelementptr inbounds i8* %21, i64 1, !dbg !4064
  store i8* %22, i8** %s1_addr, align 8, !dbg !4064
  %toBool6 = icmp ne i8 %20, 0, !dbg !4064
  br i1 %toBool6, label %bb, label %bb7, !dbg !4064

bb7:                                              ; preds = %bb5, %bb1, %bb
  %23 = load i32* %r, align 4, !dbg !4065
  store i32 %23, i32* %0, align 4, !dbg !4065
  %24 = load i32* %0, align 4, !dbg !4065
  store i32 %24, i32* %retval, align 4, !dbg !4065
  %retval8 = load i32* %retval, !dbg !4065
  ret i32 %retval8, !dbg !4065
}

define i32 @__sigismember(%struct.__sigset_t* %__set, i32 %__sig) nounwind {
entry:
  %__set_addr = alloca %struct.__sigset_t*, align 8
  %__sig_addr = alloca i32, align 4
  %retval = alloca i32
  %0 = alloca i32
  %__mask = alloca i64
  %__word = alloca i64
  %"alloca point" = bitcast i32 0 to i32
  store %struct.__sigset_t* %__set, %struct.__sigset_t** %__set_addr
  store i32 %__sig, i32* %__sig_addr
  %1 = load i32* %__sig_addr, align 4, !dbg !4066
  %2 = sub nsw i32 %1, 1, !dbg !4066
  %3 = and i32 %2, 63, !dbg !4066
  %.cast = zext i32 %3 to i64, !dbg !4066
  %4 = shl i64 1, %.cast, !dbg !4066
  store i64 %4, i64* %__mask, align 8, !dbg !4066
  %5 = load i32* %__sig_addr, align 4, !dbg !4066
  %6 = sub nsw i32 %5, 1, !dbg !4066
  %7 = sext i32 %6 to i64, !dbg !4066
  %int_cast_to_i64 = bitcast i64 64 to i64
  call void @klee_div_zero_check(i64 %int_cast_to_i64)
  %8 = udiv i64 %7, 64, !dbg !4066
  store i64 %8, i64* %__word, align 8, !dbg !4066
  %9 = load i64* %__word, align 8, !dbg !4066
  %10 = load %struct.__sigset_t** %__set_addr, align 8, !dbg !4066
  %11 = getelementptr inbounds %struct.__sigset_t* %10, i32 0, i32 0, !dbg !4066
  %12 = getelementptr inbounds [16 x i64]* %11, i64 0, i64 %9, !dbg !4066
  %13 = load i64* %12, align 8, !dbg !4066
  %14 = load i64* %__mask, align 8, !dbg !4066
  %15 = and i64 %13, %14, !dbg !4066
  %16 = icmp ne i64 %15, 0, !dbg !4066
  %17 = zext i1 %16 to i32, !dbg !4066
  store i32 %17, i32* %0, align 4, !dbg !4066
  %18 = load i32* %0, align 4, !dbg !4066
  store i32 %18, i32* %retval, align 4, !dbg !4066
  %retval1 = load i32* %retval, !dbg !4066
  ret i32 %retval1, !dbg !4067
}

define i32 @__sigaddset(%struct.__sigset_t* %__set, i32 %__sig) nounwind {
entry:
  %__set_addr = alloca %struct.__sigset_t*, align 8
  %__sig_addr = alloca i32, align 4
  %retval = alloca i32
  %0 = alloca i32
  %__mask = alloca i64
  %__word = alloca i64
  %"alloca point" = bitcast i32 0 to i32
  store %struct.__sigset_t* %__set, %struct.__sigset_t** %__set_addr
  store i32 %__sig, i32* %__sig_addr
  %1 = load i32* %__sig_addr, align 4, !dbg !4069
  %2 = sub nsw i32 %1, 1, !dbg !4069
  %3 = and i32 %2, 63, !dbg !4069
  %.cast = zext i32 %3 to i64, !dbg !4069
  %4 = shl i64 1, %.cast, !dbg !4069
  store i64 %4, i64* %__mask, align 8, !dbg !4069
  %5 = load i32* %__sig_addr, align 4, !dbg !4069
  %6 = sub nsw i32 %5, 1, !dbg !4069
  %7 = sext i32 %6 to i64, !dbg !4069
  %int_cast_to_i64 = bitcast i64 64 to i64
  call void @klee_div_zero_check(i64 %int_cast_to_i64)
  %8 = udiv i64 %7, 64, !dbg !4069
  store i64 %8, i64* %__word, align 8, !dbg !4069
  %9 = load i64* %__word, align 8, !dbg !4069
  %10 = load i64* %__word, align 8, !dbg !4069
  %11 = load %struct.__sigset_t** %__set_addr, align 8, !dbg !4069
  %12 = getelementptr inbounds %struct.__sigset_t* %11, i32 0, i32 0, !dbg !4069
  %13 = getelementptr inbounds [16 x i64]* %12, i64 0, i64 %10, !dbg !4069
  %14 = load i64* %13, align 8, !dbg !4069
  %15 = load i64* %__mask, align 8, !dbg !4069
  %16 = or i64 %14, %15, !dbg !4069
  %17 = load %struct.__sigset_t** %__set_addr, align 8, !dbg !4069
  %18 = getelementptr inbounds %struct.__sigset_t* %17, i32 0, i32 0, !dbg !4069
  %19 = getelementptr inbounds [16 x i64]* %18, i64 0, i64 %9, !dbg !4069
  store i64 %16, i64* %19, align 8, !dbg !4069
  store i32 0, i32* %0, align 4, !dbg !4069
  %20 = load i32* %0, align 4, !dbg !4069
  store i32 %20, i32* %retval, align 4, !dbg !4069
  %retval1 = load i32* %retval, !dbg !4069
  ret i32 %retval1, !dbg !4070
}

define i32 @__sigdelset(%struct.__sigset_t* %__set, i32 %__sig) nounwind {
entry:
  %__set_addr = alloca %struct.__sigset_t*, align 8
  %__sig_addr = alloca i32, align 4
  %retval = alloca i32
  %0 = alloca i32
  %__mask = alloca i64
  %__word = alloca i64
  %"alloca point" = bitcast i32 0 to i32
  store %struct.__sigset_t* %__set, %struct.__sigset_t** %__set_addr
  store i32 %__sig, i32* %__sig_addr
  %1 = load i32* %__sig_addr, align 4, !dbg !4072
  %2 = sub nsw i32 %1, 1, !dbg !4072
  %3 = and i32 %2, 63, !dbg !4072
  %.cast = zext i32 %3 to i64, !dbg !4072
  %4 = shl i64 1, %.cast, !dbg !4072
  store i64 %4, i64* %__mask, align 8, !dbg !4072
  %5 = load i32* %__sig_addr, align 4, !dbg !4072
  %6 = sub nsw i32 %5, 1, !dbg !4072
  %7 = sext i32 %6 to i64, !dbg !4072
  %int_cast_to_i64 = bitcast i64 64 to i64
  call void @klee_div_zero_check(i64 %int_cast_to_i64)
  %8 = udiv i64 %7, 64, !dbg !4072
  store i64 %8, i64* %__word, align 8, !dbg !4072
  %9 = load i64* %__word, align 8, !dbg !4072
  %10 = load i64* %__word, align 8, !dbg !4072
  %11 = load %struct.__sigset_t** %__set_addr, align 8, !dbg !4072
  %12 = getelementptr inbounds %struct.__sigset_t* %11, i32 0, i32 0, !dbg !4072
  %13 = getelementptr inbounds [16 x i64]* %12, i64 0, i64 %10, !dbg !4072
  %14 = load i64* %13, align 8, !dbg !4072
  %15 = load i64* %__mask, align 8, !dbg !4072
  %not = xor i64 %15, -1, !dbg !4072
  %16 = and i64 %14, %not, !dbg !4072
  %17 = load %struct.__sigset_t** %__set_addr, align 8, !dbg !4072
  %18 = getelementptr inbounds %struct.__sigset_t* %17, i32 0, i32 0, !dbg !4072
  %19 = getelementptr inbounds [16 x i64]* %18, i64 0, i64 %9, !dbg !4072
  store i64 %16, i64* %19, align 8, !dbg !4072
  store i32 0, i32* %0, align 4, !dbg !4072
  %20 = load i32* %0, align 4, !dbg !4072
  store i32 %20, i32* %retval, align 4, !dbg !4072
  %retval2 = load i32* %retval, !dbg !4072
  ret i32 %retval2, !dbg !4073
}

define i32 @fseek(%struct.FILE* %stream, i64 %offset, i32 %whence) nounwind {
entry:
  %stream_addr = alloca %struct.FILE*, align 8
  %offset_addr = alloca i64, align 8
  %whence_addr = alloca i32, align 4
  %retval = alloca i32
  %0 = alloca i32
  %"alloca point" = bitcast i32 0 to i32
  store %struct.FILE* %stream, %struct.FILE** %stream_addr
  store i64 %offset, i64* %offset_addr
  store i32 %whence, i32* %whence_addr
  %1 = load %struct.FILE** %stream_addr, align 8, !dbg !4075
  %2 = load i64* %offset_addr, align 8, !dbg !4075
  %3 = load i32* %whence_addr, align 4, !dbg !4075
  %4 = call i32 @fseeko64(%struct.FILE* %1, i64 %2, i32 %3) nounwind, !dbg !4075
  store i32 %4, i32* %0, align 4, !dbg !4075
  %5 = load i32* %0, align 4, !dbg !4075
  store i32 %5, i32* %retval, align 4, !dbg !4075
  %retval1 = load i32* %retval, !dbg !4075
  ret i32 %retval1, !dbg !4075
}

define hidden i32 @__raise(i32 %signo) nounwind {
entry:
  %signo_addr = alloca i32, align 4
  %retval = alloca i32
  %0 = alloca i32
  %"alloca point" = bitcast i32 0 to i32
  store i32 %signo, i32* %signo_addr
  %1 = call i32 @getpid() nounwind, !dbg !4077
  %2 = load i32* %signo_addr, align 4, !dbg !4077
  %3 = call i32 @kill(i32 %1, i32 %2) nounwind, !dbg !4077
  store i32 %3, i32* %0, align 4, !dbg !4077
  %4 = load i32* %0, align 4, !dbg !4077
  store i32 %4, i32* %retval, align 4, !dbg !4077
  %retval1 = load i32* %retval, !dbg !4077
  ret i32 %retval1, !dbg !4077
}

declare i32 @getpid() nounwind

define i32 @isatty(i32 %fd) nounwind {
entry:
  %fd_addr = alloca i32, align 4
  %retval = alloca i32
  %0 = alloca i32
  %term = alloca %struct.termios
  %"alloca point" = bitcast i32 0 to i32
  store i32 %fd, i32* %fd_addr
  %1 = load i32* %fd_addr, align 4, !dbg !4079
  %2 = call i32 @tcgetattr(i32 %1, %struct.termios* %term) nounwind, !dbg !4079
  %3 = icmp eq i32 %2, 0, !dbg !4079
  %4 = zext i1 %3 to i32, !dbg !4079
  store i32 %4, i32* %0, align 4, !dbg !4079
  %5 = load i32* %0, align 4, !dbg !4079
  store i32 %5, i32* %retval, align 4, !dbg !4079
  %retval1 = load i32* %retval, !dbg !4079
  ret i32 %retval1, !dbg !4079
}

define i32 @__libc_sigaction(i32 %sig, %struct.sigaction* %act, %struct.sigaction* %oact) nounwind {
entry:
  %sig_addr = alloca i32, align 4
  %act_addr = alloca %struct.sigaction*, align 8
  %oact_addr = alloca %struct.sigaction*, align 8
  %retval = alloca i32
  %0 = alloca i32
  %iftmp.1 = alloca %struct.kernel_sigaction*
  %iftmp.0 = alloca %struct.kernel_sigaction*
  %result = alloca i32
  %kact = alloca %struct.kernel_sigaction
  %koact = alloca %struct.kernel_sigaction
  %"alloca point" = bitcast i32 0 to i32
  store i32 %sig, i32* %sig_addr
  store %struct.sigaction* %act, %struct.sigaction** %act_addr
  store %struct.sigaction* %oact, %struct.sigaction** %oact_addr
  %1 = load %struct.sigaction** %act_addr, align 8, !dbg !4081
  %2 = icmp ne %struct.sigaction* %1, null, !dbg !4081
  br i1 %2, label %bb, label %bb1, !dbg !4081

bb:                                               ; preds = %entry
  %3 = load %struct.sigaction** %act_addr, align 8, !dbg !4083
  %4 = getelementptr inbounds %struct.sigaction* %3, i32 0, i32 0, !dbg !4083
  %5 = getelementptr inbounds %2* %4, i32 0, i32 0, !dbg !4083
  %6 = load void (i32)** %5, align 8, !dbg !4083
  %7 = getelementptr inbounds %struct.kernel_sigaction* %kact, i32 0, i32 0, !dbg !4083
  store void (i32)* %6, void (i32)** %7, align 8, !dbg !4083
  %8 = load %struct.sigaction** %act_addr, align 8, !dbg !4084
  %9 = getelementptr inbounds %struct.sigaction* %8, i32 0, i32 1, !dbg !4084
  %10 = getelementptr inbounds %struct.kernel_sigaction* %kact, i32 0, i32 3, !dbg !4084
  %11 = bitcast %struct.__sigset_t* %10 to i8*, !dbg !4084
  %12 = bitcast %struct.__sigset_t* %9 to i8*, !dbg !4084
  %13 = call i8* @memcpy(i8* noalias %11, i8* noalias %12, i64 128) nounwind, !dbg !4084
  %14 = load %struct.sigaction** %act_addr, align 8, !dbg !4085
  %15 = getelementptr inbounds %struct.sigaction* %14, i32 0, i32 2, !dbg !4085
  %16 = load i32* %15, align 8, !dbg !4085
  %17 = sext i32 %16 to i64, !dbg !4085
  %18 = getelementptr inbounds %struct.kernel_sigaction* %kact, i32 0, i32 1, !dbg !4085
  store i64 %17, i64* %18, align 8, !dbg !4085
  %19 = load %struct.sigaction** %act_addr, align 8, !dbg !4086
  %20 = getelementptr inbounds %struct.sigaction* %19, i32 0, i32 3, !dbg !4086
  %21 = load void ()** %20, align 8, !dbg !4086
  %22 = getelementptr inbounds %struct.kernel_sigaction* %kact, i32 0, i32 2, !dbg !4086
  store void ()* %21, void ()** %22, align 8, !dbg !4086
  br label %bb1, !dbg !4086

bb1:                                              ; preds = %bb, %entry
  %23 = load %struct.sigaction** %oact_addr, align 8, !dbg !4087
  %24 = icmp ne %struct.sigaction* %23, null, !dbg !4087
  br i1 %24, label %bb2, label %bb3, !dbg !4087

bb2:                                              ; preds = %bb1
  store %struct.kernel_sigaction* %koact, %struct.kernel_sigaction** %iftmp.0, align 8, !dbg !4087
  br label %bb4, !dbg !4087

bb3:                                              ; preds = %bb1
  store %struct.kernel_sigaction* null, %struct.kernel_sigaction** %iftmp.0, align 8, !dbg !4087
  br label %bb4, !dbg !4087

bb4:                                              ; preds = %bb3, %bb2
  %25 = load %struct.sigaction** %act_addr, align 8, !dbg !4087
  %26 = icmp ne %struct.sigaction* %25, null, !dbg !4087
  br i1 %26, label %bb5, label %bb6, !dbg !4087

bb5:                                              ; preds = %bb4
  store %struct.kernel_sigaction* %kact, %struct.kernel_sigaction** %iftmp.1, align 8, !dbg !4087
  br label %bb7, !dbg !4087

bb6:                                              ; preds = %bb4
  store %struct.kernel_sigaction* null, %struct.kernel_sigaction** %iftmp.1, align 8, !dbg !4087
  br label %bb7, !dbg !4087

bb7:                                              ; preds = %bb6, %bb5
  %27 = load i32* %sig_addr, align 4, !dbg !4087
  %28 = load %struct.kernel_sigaction** %iftmp.1, align 8, !dbg !4087
  %29 = load %struct.kernel_sigaction** %iftmp.0, align 8, !dbg !4087
  %30 = call i32 bitcast (i32 (i32, %struct.sigaction*, %struct.sigaction*, i64)* @__syscall_rt_sigaction to i32 (i32, %struct.kernel_sigaction*, %struct.kernel_sigaction*, i64)*)(i32 %27, %struct.kernel_sigaction* %28, %struct.kernel_sigaction* %29, i64
  store i32 %30, i32* %result, align 4, !dbg !4087
  %31 = load %struct.sigaction** %oact_addr, align 8, !dbg !4088
  %32 = icmp ne %struct.sigaction* %31, null, !dbg !4088
  br i1 %32, label %bb8, label %bb10, !dbg !4088

bb8:                                              ; preds = %bb7
  %33 = load i32* %result, align 4, !dbg !4088
  %34 = icmp sge i32 %33, 0, !dbg !4088
  br i1 %34, label %bb9, label %bb10, !dbg !4088

bb9:                                              ; preds = %bb8
  %35 = getelementptr inbounds %struct.kernel_sigaction* %koact, i32 0, i32 0, !dbg !4089
  %36 = load void (i32)** %35, align 8, !dbg !4089
  %37 = load %struct.sigaction** %oact_addr, align 8, !dbg !4089
  %38 = getelementptr inbounds %struct.sigaction* %37, i32 0, i32 0, !dbg !4089
  %39 = getelementptr inbounds %2* %38, i32 0, i32 0, !dbg !4089
  store void (i32)* %36, void (i32)** %39, align 8, !dbg !4089
  %40 = load %struct.sigaction** %oact_addr, align 8, !dbg !4090
  %41 = getelementptr inbounds %struct.sigaction* %40, i32 0, i32 1, !dbg !4090
  %42 = bitcast %struct.__sigset_t* %41 to i8*, !dbg !4090
  %43 = getelementptr inbounds %struct.kernel_sigaction* %koact, i32 0, i32 3, !dbg !4090
  %44 = bitcast %struct.__sigset_t* %43 to i8*, !dbg !4090
  %45 = call i8* @memcpy(i8* noalias %42, i8* noalias %44, i64 128) nounwind, !dbg !4090
  %46 = getelementptr inbounds %struct.kernel_sigaction* %koact, i32 0, i32 1, !dbg !4091
  %47 = load i64* %46, align 8, !dbg !4091
  %48 = trunc i64 %47 to i32, !dbg !4091
  %49 = load %struct.sigaction** %oact_addr, align 8, !dbg !4091
  %50 = getelementptr inbounds %struct.sigaction* %49, i32 0, i32 2, !dbg !4091
  store i32 %48, i32* %50, align 8, !dbg !4091
  %51 = getelementptr inbounds %struct.kernel_sigaction* %koact, i32 0, i32 2, !dbg !4092
  %52 = load void ()** %51, align 8, !dbg !4092
  %53 = load %struct.sigaction** %oact_addr, align 8, !dbg !4092
  %54 = getelementptr inbounds %struct.sigaction* %53, i32 0, i32 3, !dbg !4092
  store void ()* %52, void ()** %54, align 8, !dbg !4092
  br label %bb10, !dbg !4092

bb10:                                             ; preds = %bb9, %bb8, %bb7
  %55 = load i32* %result, align 4, !dbg !4093
  store i32 %55, i32* %0, align 4, !dbg !4093
  %56 = load i32* %0, align 4, !dbg !4093
  store i32 %56, i32* %retval, align 4, !dbg !4093
  %retval11 = load i32* %retval, !dbg !4093
  ret i32 %retval11, !dbg !4093
}

define i32 @fseeko64(%struct.FILE* %stream, i64 %offset, i32 %whence) nounwind {
entry:
  %stream_addr = alloca %struct.FILE*, align 8
  %offset_addr = alloca i64, align 8
  %whence_addr = alloca i32, align 4
  %retval = alloca i32
  %0 = alloca i32
  %pos = alloca i64
  %retval1 = alloca i32
  %"alloca point" = bitcast i32 0 to i32
  store %struct.FILE* %stream, %struct.FILE** %stream_addr
  store i64 %offset, i64* %offset_addr
  store i32 %whence, i32* %whence_addr
  %1 = load i64* %offset_addr, align 8, !dbg !4094
  store i64 %1, i64* %pos, align 8, !dbg !4094
  store i32 -1, i32* %retval1, align 4, !dbg !4096
  %2 = load i32* %whence_addr, align 4, !dbg !4097
  %3 = icmp ugt i32 %2, 2, !dbg !4097
  br i1 %3, label %bb, label %bb2, !dbg !4097

bb:                                               ; preds = %entry
  store i32 22, i32* @errno, align 4, !dbg !4098
  br label %bb8, !dbg !4098

bb2:                                              ; preds = %entry
  %4 = load %struct.FILE** %stream_addr, align 8, !dbg !4099
  %5 = getelementptr inbounds %struct.FILE* %4, i32 0, i32 0, !dbg !4099
  %6 = load i16* %5, align 8, !dbg !4099
  %7 = zext i16 %6 to i32, !dbg !4099
  %8 = and i32 %7, 64, !dbg !4099
  %9 = icmp eq i32 %8, 0, !dbg !4099
  br i1 %9, label %bb4, label %bb3, !dbg !4099

bb3:                                              ; preds = %bb2
  %10 = load %struct.FILE** %stream_addr, align 8, !dbg !4099
  %11 = call i64 @__stdio_wcommit(%struct.FILE* noalias %10) nounwind, !dbg !4099
  %12 = icmp eq i64 %11, 0, !dbg !4099
  br i1 %12, label %bb4, label %bb8, !dbg !4099

bb4:                                              ; preds = %bb3, %bb2
  %13 = load i32* %whence_addr, align 4, !dbg !4099
  %14 = icmp ne i32 %13, 1, !dbg !4099
  br i1 %14, label %bb6, label %bb5, !dbg !4099

bb5:                                              ; preds = %bb4
  %15 = load %struct.FILE** %stream_addr, align 8, !dbg !4099
  %16 = call i32 @__stdio_adjust_position(%struct.FILE* noalias %15, i64* %pos) nounwind, !dbg !4099
  %17 = icmp sge i32 %16, 0, !dbg !4099
  br i1 %17, label %bb6, label %bb8, !dbg !4099

bb6:                                              ; preds = %bb5, %bb4
  %18 = load %struct.FILE** %stream_addr, align 8, !dbg !4099
  %19 = load i32* %whence_addr, align 4, !dbg !4099
  %20 = call i32 @__stdio_seek(%struct.FILE* %18, i64* %pos, i32 %19) nounwind, !dbg !4099
  %21 = icmp sge i32 %20, 0, !dbg !4099
  br i1 %21, label %bb7, label %bb8, !dbg !4099

bb7:                                              ; preds = %bb6
  %22 = load %struct.FILE** %stream_addr, align 8, !dbg !4100
  %23 = getelementptr inbounds %struct.FILE* %22, i32 0, i32 0, !dbg !4100
  %24 = load i16* %23, align 8, !dbg !4100
  %25 = and i16 %24, -72, !dbg !4100
  %26 = load %struct.FILE** %stream_addr, align 8, !dbg !4100
  %27 = getelementptr inbounds %struct.FILE* %26, i32 0, i32 0, !dbg !4100
  store i16 %25, i16* %27, align 8, !dbg !4100
  %28 = load %struct.FILE** %stream_addr, align 8, !dbg !4101
  %29 = getelementptr inbounds %struct.FILE* %28, i32 0, i32 3, !dbg !4101
  %30 = load i8** %29, align 8, !dbg !4101
  %31 = load %struct.FILE** %stream_addr, align 8, !dbg !4101
  %32 = getelementptr inbounds %struct.FILE* %31, i32 0, i32 5, !dbg !4101
  store i8* %30, i8** %32, align 8, !dbg !4101
  %33 = load %struct.FILE** %stream_addr, align 8, !dbg !4101
  %34 = getelementptr inbounds %struct.FILE* %33, i32 0, i32 5, !dbg !4101
  %35 = load i8** %34, align 8, !dbg !4101
  %36 = load %struct.FILE** %stream_addr, align 8, !dbg !4101
  %37 = getelementptr inbounds %struct.FILE* %36, i32 0, i32 6, !dbg !4101
  store i8* %35, i8** %37, align 8, !dbg !4101
  %38 = load %struct.FILE** %stream_addr, align 8, !dbg !4102
  %39 = getelementptr inbounds %struct.FILE* %38, i32 0, i32 3, !dbg !4102
  %40 = load i8** %39, align 8, !dbg !4102
  %41 = load %struct.FILE** %stream_addr, align 8, !dbg !4102
  %42 = getelementptr inbounds %struct.FILE* %41, i32 0, i32 7, !dbg !4102
  store i8* %40, i8** %42, align 8, !dbg !4102
  %43 = load %struct.FILE** %stream_addr, align 8, !dbg !4103
  %44 = getelementptr inbounds %struct.FILE* %43, i32 0, i32 3, !dbg !4103
  %45 = load i8** %44, align 8, !dbg !4103
  %46 = load %struct.FILE** %stream_addr, align 8, !dbg !4103
  %47 = getelementptr inbounds %struct.FILE* %46, i32 0, i32 8, !dbg !4103
  store i8* %45, i8** %47, align 8, !dbg !4103
  %48 = load %struct.FILE** %stream_addr, align 8, !dbg !4104
  %49 = getelementptr inbounds %struct.FILE* %48, i32 0, i32 11, !dbg !4104
  %50 = getelementptr inbounds %struct.__mbstate_t* %49, i32 0, i32 0, !dbg !4104
  store i32 0, i32* %50, align 8, !dbg !4104
  %51 = load %struct.FILE** %stream_addr, align 8, !dbg !4105
  %52 = getelementptr inbounds %struct.FILE* %51, i32 0, i32 1, !dbg !4105
  %53 = getelementptr inbounds [2 x i8]* %52, i64 0, i64 0, !dbg !4105
  store i8 0, i8* %53, align 1, !dbg !4105
  store i32 0, i32* %retval1, align 4, !dbg !4106
  br label %bb8, !dbg !4106

bb8:                                              ; preds = %bb7, %bb6, %bb5, %bb3, %bb
  %54 = load i32* %retval1, align 4, !dbg !4107
  store i32 %54, i32* %0, align 4, !dbg !4107
  %55 = load i32* %0, align 4, !dbg !4107
  store i32 %55, i32* %retval, align 4, !dbg !4107
  %retval9 = load i32* %retval, !dbg !4107
  ret i32 %retval9, !dbg !4107
}

define i32 @tcgetattr(i32 %fd, %struct.termios* %termios_p) nounwind {
entry:
  %fd_addr = alloca i32, align 4
  %termios_p_addr = alloca %struct.termios*, align 8
  %retval = alloca i32
  %0 = alloca i32
  %k_termios = alloca %struct.__kernel_termios
  %retval1 = alloca i32
  %"alloca point" = bitcast i32 0 to i32
  store i32 %fd, i32* %fd_addr
  store %struct.termios* %termios_p, %struct.termios** %termios_p_addr
  %1 = load i32* %fd_addr, align 4, !dbg !4108
  %2 = call i32 (i32, i64, ...)* @ioctl(i32 %1, i64 21505, %struct.__kernel_termios* %k_termios) nounwind, !dbg !4108
  store i32 %2, i32* %retval1, align 4, !dbg !4108
  %3 = getelementptr inbounds %struct.__kernel_termios* %k_termios, i32 0, i32 0, !dbg !4110
  %4 = load i32* %3, align 4, !dbg !4110
  %5 = load %struct.termios** %termios_p_addr, align 8, !dbg !4110
  %6 = getelementptr inbounds %struct.termios* %5, i32 0, i32 0, !dbg !4110
  store i32 %4, i32* %6, align 4, !dbg !4110
  %7 = getelementptr inbounds %struct.__kernel_termios* %k_termios, i32 0, i32 1, !dbg !4111
  %8 = load i32* %7, align 4, !dbg !4111
  %9 = load %struct.termios** %termios_p_addr, align 8, !dbg !4111
  %10 = getelementptr inbounds %struct.termios* %9, i32 0, i32 1, !dbg !4111
  store i32 %8, i32* %10, align 4, !dbg !4111
  %11 = getelementptr inbounds %struct.__kernel_termios* %k_termios, i32 0, i32 2, !dbg !4112
  %12 = load i32* %11, align 4, !dbg !4112
  %13 = load %struct.termios** %termios_p_addr, align 8, !dbg !4112
  %14 = getelementptr inbounds %struct.termios* %13, i32 0, i32 2, !dbg !4112
  store i32 %12, i32* %14, align 4, !dbg !4112
  %15 = getelementptr inbounds %struct.__kernel_termios* %k_termios, i32 0, i32 3, !dbg !4113
  %16 = load i32* %15, align 4, !dbg !4113
  %17 = load %struct.termios** %termios_p_addr, align 8, !dbg !4113
  %18 = getelementptr inbounds %struct.termios* %17, i32 0, i32 3, !dbg !4113
  store i32 %16, i32* %18, align 4, !dbg !4113
  %19 = getelementptr inbounds %struct.__kernel_termios* %k_termios, i32 0, i32 4, !dbg !4114
  %20 = load i8* %19, align 4, !dbg !4114
  %21 = load %struct.termios** %termios_p_addr, align 8, !dbg !4114
  %22 = getelementptr inbounds %struct.termios* %21, i32 0, i32 4, !dbg !4114
  store i8 %20, i8* %22, align 4, !dbg !4114
  %23 = load %struct.termios** %termios_p_addr, align 8, !dbg !4115
  %24 = getelementptr inbounds %struct.termios* %23, i32 0, i32 5, !dbg !4115
  %25 = getelementptr inbounds [32 x i8]* %24, i64 0, i64 0, !dbg !4115
  %26 = getelementptr inbounds %struct.__kernel_termios* %k_termios, i32 0, i32 5, !dbg !4115
  %27 = getelementptr inbounds [19 x i8]* %26, i64 0, i64 0, !dbg !4115
  %28 = call i8* @mempcpy(i8* noalias %25, i8* noalias %27, i64 19) nounwind, !dbg !4115
  %29 = call i8* @memset(i8* %28, i32 0, i64 13) nounwind, !dbg !4115
  %30 = load i32* %retval1, align 4, !dbg !4116
  store i32 %30, i32* %0, align 4, !dbg !4116
  %31 = load i32* %0, align 4, !dbg !4116
  store i32 %31, i32* %retval, align 4, !dbg !4116
  %retval2 = load i32* %retval, !dbg !4116
  ret i32 %retval2, !dbg !4116
}

define hidden i32 @__stdio_seek(%struct.FILE* %stream, i64* %pos, i32 %whence) nounwind {
entry:
  %stream_addr = alloca %struct.FILE*, align 8
  %pos_addr = alloca i64*, align 8
  %whence_addr = alloca i32, align 4
  %retval = alloca i32
  %iftmp.0 = alloca i32
  %0 = alloca i32
  %res = alloca i64
  %"alloca point" = bitcast i32 0 to i32
  store %struct.FILE* %stream, %struct.FILE** %stream_addr
  store i64* %pos, i64** %pos_addr
  store i32 %whence, i32* %whence_addr
  %1 = load i64** %pos_addr, align 8, !dbg !4117
  %2 = load i64* %1, align 8, !dbg !4117
  %3 = load %struct.FILE** %stream_addr, align 8, !dbg !4117
  %4 = getelementptr inbounds %struct.FILE* %3, i32 0, i32 2, !dbg !4117
  %5 = load i32* %4, align 4, !dbg !4117
  %6 = load i32* %whence_addr, align 4, !dbg !4117
  %7 = call i64 @lseek64(i32 %5, i64 %2, i32 %6) nounwind, !dbg !4117
  store i64 %7, i64* %res, align 8, !dbg !4117
  %8 = load i64* %res, align 8, !dbg !4119
  %9 = icmp sge i64 %8, 0, !dbg !4119
  br i1 %9, label %bb, label %bb1, !dbg !4119

bb:                                               ; preds = %entry
  %10 = load i64** %pos_addr, align 8, !dbg !4119
  %11 = load i64* %res, align 8, !dbg !4119
  store i64 %11, i64* %10, align 8, !dbg !4119
  store i32 0, i32* %iftmp.0, align 4, !dbg !4119
  br label %bb2, !dbg !4119

bb1:                                              ; preds = %entry
  %12 = load i64* %res, align 8, !dbg !4119
  %13 = trunc i64 %12 to i32, !dbg !4119
  store i32 %13, i32* %iftmp.0, align 4, !dbg !4119
  br label %bb2, !dbg !4119

bb2:                                              ; preds = %bb1, %bb
  %14 = load i32* %iftmp.0, align 4, !dbg !4119
  store i32 %14, i32* %0, align 4, !dbg !4119
  %15 = load i32* %0, align 4, !dbg !4119
  store i32 %15, i32* %retval, align 4, !dbg !4119
  %retval3 = load i32* %retval, !dbg !4119
  ret i32 %retval3, !dbg !4119
}

define hidden i32 @__stdio_adjust_position(%struct.FILE* noalias %stream, i64* %pos) nounwind {
entry:
  %stream_addr = alloca %struct.FILE*, align 8
  %pos_addr = alloca i64*, align 8
  %retval = alloca i32
  %iftmp.0 = alloca i8*
  %0 = alloca i32
  %oldpos = alloca i64
  %corr = alloca i32
  %"alloca point" = bitcast i32 0 to i32
  store %struct.FILE* %stream, %struct.FILE** %stream_addr
  store i64* %pos, i64** %pos_addr
  %1 = load %struct.FILE** %stream_addr, align 8, !dbg !4120
  %2 = getelementptr inbounds %struct.FILE* %1, i32 0, i32 0, !dbg !4120
  %3 = load i16* %2, align 8, !dbg !4120
  %4 = zext i16 %3 to i32, !dbg !4120
  %5 = and i32 %4, 3, !dbg !4120
  store i32 %5, i32* %corr, align 4, !dbg !4120
  %6 = load i32* %corr, align 4, !dbg !4120
  %7 = icmp ne i32 %6, 0, !dbg !4120
  br i1 %7, label %bb, label %bb1, !dbg !4120

bb:                                               ; preds = %entry
  %8 = load i32* %corr, align 4, !dbg !4122
  %9 = sub nsw i32 %8, 1, !dbg !4122
  store i32 %9, i32* %corr, align 4, !dbg !4122
  br label %bb1, !dbg !4122

bb1:                                              ; preds = %bb, %entry
  %10 = load i32* %corr, align 4, !dbg !4123
  %11 = icmp ne i32 %10, 0, !dbg !4123
  br i1 %11, label %bb2, label %bb8, !dbg !4123

bb2:                                              ; preds = %bb1
  %12 = load %struct.FILE** %stream_addr, align 8, !dbg !4123
  %13 = getelementptr inbounds %struct.FILE* %12, i32 0, i32 0, !dbg !4123
  %14 = load i16* %13, align 8, !dbg !4123
  %15 = zext i16 %14 to i32, !dbg !4123
  %16 = and i32 %15, 2048, !dbg !4123
  %17 = icmp ne i32 %16, 0, !dbg !4123
  br i1 %17, label %bb3, label %bb8, !dbg !4123

bb3:                                              ; preds = %bb2
  %18 = load i32* %corr, align 4, !dbg !4124
  %19 = icmp sgt i32 %18, 1, !dbg !4124
  br i1 %19, label %bb5, label %bb4, !dbg !4124

bb4:                                              ; preds = %bb3
  %20 = load %struct.FILE** %stream_addr, align 8, !dbg !4124
  %21 = getelementptr inbounds %struct.FILE* %20, i32 0, i32 10, !dbg !4124
  %22 = getelementptr inbounds [2 x i32]* %21, i64 0, i64 1, !dbg !4124
  %23 = load i32* %22, align 4, !dbg !4124
  %24 = icmp ne i32 %23, 0, !dbg !4124
  br i1 %24, label %bb5, label %bb6, !dbg !4124

bb5:                                              ; preds = %bb4, %bb3
  store i32 -1, i32* %0, align 4, !dbg !4125
  br label %bb16, !dbg !4125

bb6:                                              ; preds = %bb4
  %25 = load %struct.FILE** %stream_addr, align 8, !dbg !4126
  %26 = getelementptr inbounds %struct.FILE* %25, i32 0, i32 1, !dbg !4126
  %27 = getelementptr inbounds [2 x i8]* %26, i64 0, i64 1, !dbg !4126
  %28 = load i8* %27, align 1, !dbg !4126
  %29 = zext i8 %28 to i32, !dbg !4126
  %30 = add nsw i32 %29, 1, !dbg !4126
  %31 = load i32* %corr, align 4, !dbg !4126
  %32 = sub nsw i32 %31, %30, !dbg !4126
  store i32 %32, i32* %corr, align 4, !dbg !4126
  %33 = load %struct.FILE** %stream_addr, align 8, !dbg !4127
  %34 = getelementptr inbounds %struct.FILE* %33, i32 0, i32 11, !dbg !4127
  %35 = getelementptr inbounds %struct.__mbstate_t* %34, i32 0, i32 0, !dbg !4127
  %36 = load i32* %35, align 8, !dbg !4127
  %37 = icmp sgt i32 %36, 0, !dbg !4127
  br i1 %37, label %bb7, label %bb8, !dbg !4127

bb7:                                              ; preds = %bb6
  %38 = load %struct.FILE** %stream_addr, align 8, !dbg !4128
  %39 = getelementptr inbounds %struct.FILE* %38, i32 0, i32 1, !dbg !4128
  %40 = getelementptr inbounds [2 x i8]* %39, i64 0, i64 0, !dbg !4128
  %41 = load i8* %40, align 1, !dbg !4128
  %42 = zext i8 %41 to i32, !dbg !4128
  %43 = load i32* %corr, align 4, !dbg !4128
  %44 = sub nsw i32 %43, %42, !dbg !4128
  store i32 %44, i32* %corr, align 4, !dbg !4128
  br label %bb8, !dbg !4128

bb8:                                              ; preds = %bb7, %bb6, %bb2, %bb1
  %45 = load %struct.FILE** %stream_addr, align 8, !dbg !4129
  %46 = getelementptr inbounds %struct.FILE* %45, i32 0, i32 0, !dbg !4129
  %47 = load i16* %46, align 8, !dbg !4129
  %48 = zext i16 %47 to i32, !dbg !4129
  %49 = and i32 %48, 64, !dbg !4129
  %50 = icmp ne i32 %49, 0, !dbg !4129
  %51 = load %struct.FILE** %stream_addr, align 8, !dbg !4129
  br i1 %50, label %bb9, label %bb10, !dbg !4129

bb9:                                              ; preds = %bb8
  %52 = getelementptr inbounds %struct.FILE* %51, i32 0, i32 3, !dbg !4129
  %53 = load i8** %52, align 8, !dbg !4129
  store i8* %53, i8** %iftmp.0, align 8, !dbg !4129
  br label %bb11, !dbg !4129

bb10:                                             ; preds = %bb8
  %54 = getelementptr inbounds %struct.FILE* %51, i32 0, i32 6, !dbg !4129
  %55 = load i8** %54, align 8, !dbg !4129
  store i8* %55, i8** %iftmp.0, align 8, !dbg !4129
  br label %bb11, !dbg !4129

bb11:                                             ; preds = %bb10, %bb9
  %56 = load i8** %iftmp.0, align 8, !dbg !4129
  %57 = ptrtoint i8* %56 to i64, !dbg !4129
  %58 = trunc i64 %57 to i32, !dbg !4129
  %59 = load %struct.FILE** %stream_addr, align 8, !dbg !4129
  %60 = getelementptr inbounds %struct.FILE* %59, i32 0, i32 5, !dbg !4129
  %61 = load i8** %60, align 8, !dbg !4129
  %62 = ptrtoint i8* %61 to i64, !dbg !4129
  %63 = trunc i64 %62 to i32, !dbg !4129
  %64 = sub i32 %58, %63, !dbg !4129
  %65 = load i32* %corr, align 4, !dbg !4129
  %66 = add i32 %64, %65, !dbg !4129
  store i32 %66, i32* %corr, align 4, !dbg !4129
  %67 = load i64** %pos_addr, align 8, !dbg !4130
  %68 = load i64* %67, align 8, !dbg !4130
  store i64 %68, i64* %oldpos, align 8, !dbg !4130
  %69 = load i64** %pos_addr, align 8, !dbg !4131
  %70 = load i64* %69, align 8, !dbg !4131
  %71 = load i32* %corr, align 4, !dbg !4131
  %72 = sext i32 %71 to i64, !dbg !4131
  %73 = sub nsw i64 %70, %72, !dbg !4131
  %74 = load i64** %pos_addr, align 8, !dbg !4131
  store i64 %73, i64* %74, align 8, !dbg !4131
  %75 = load i64** %pos_addr, align 8, !dbg !4131
  %76 = load i64* %75, align 8, !dbg !4131
  %77 = load i64* %oldpos, align 8, !dbg !4131
  %78 = icmp sgt i64 %76, %77, !dbg !4131
  br i1 %78, label %bb12, label %bb13, !dbg !4131

bb12:                                             ; preds = %bb11
  %79 = load i32* %corr, align 4, !dbg !4132
  %80 = sub nsw i32 0, %79, !dbg !4132
  store i32 %80, i32* %corr, align 4, !dbg !4132
  br label %bb13, !dbg !4132

bb13:                                             ; preds = %bb12, %bb11
  %81 = load i32* %corr, align 4, !dbg !4133
  %82 = icmp slt i32 %81, 0, !dbg !4133
  br i1 %82, label %bb14, label %bb15, !dbg !4133

bb14:                                             ; preds = %bb13
  store i32 75, i32* @errno, align 4, !dbg !4134
  br label %bb15, !dbg !4134

bb15:                                             ; preds = %bb14, %bb13
  %83 = load i32* %corr, align 4, !dbg !4135
  store i32 %83, i32* %0, align 4, !dbg !4135
  br label %bb16, !dbg !4135

bb16:                                             ; preds = %bb15, %bb5
  %84 = load i32* %0, align 4, !dbg !4125
  store i32 %84, i32* %retval, align 4, !dbg !4125
  %retval17 = load i32* %retval, !dbg !4125
  ret i32 %retval17, !dbg !4125
}

define i8* @mempcpy(i8* noalias %s1, i8* noalias %s2, i64 %n) nounwind {
entry:
  %s1_addr = alloca i8*, align 8
  %s2_addr = alloca i8*, align 8
  %n_addr = alloca i64, align 8
  %retval = alloca i8*
  %0 = alloca i8*
  %r1 = alloca i8*
  %r2 = alloca i8*
  %"alloca point" = bitcast i32 0 to i32
  store i8* %s1, i8** %s1_addr
  store i8* %s2, i8** %s2_addr
  store i64 %n, i64* %n_addr
  %1 = load i8** %s1_addr, align 8, !dbg !4136
  store i8* %1, i8** %r1, align 8, !dbg !4136
  %2 = load i8** %s2_addr, align 8, !dbg !4138
  store i8* %2, i8** %r2, align 8, !dbg !4138
  br label %bb1, !dbg !4138

bb:                                               ; preds = %bb1
  %3 = load i8** %r2, align 8, !dbg !4139
  %4 = load i8* %3, align 1, !dbg !4139
  %5 = load i8** %r1, align 8, !dbg !4139
  store i8 %4, i8* %5, align 1, !dbg !4139
  %6 = load i8** %r1, align 8, !dbg !4139
  %7 = getelementptr inbounds i8* %6, i64 1, !dbg !4139
  store i8* %7, i8** %r1, align 8, !dbg !4139
  %8 = load i8** %r2, align 8, !dbg !4139
  %9 = getelementptr inbounds i8* %8, i64 1, !dbg !4139
  store i8* %9, i8** %r2, align 8, !dbg !4139
  %10 = load i64* %n_addr, align 8, !dbg !4140
  %11 = sub i64 %10, 1, !dbg !4140
  store i64 %11, i64* %n_addr, align 8, !dbg !4140
  br label %bb1, !dbg !4140

bb1:                                              ; preds = %bb, %entry
  %12 = load i64* %n_addr, align 8, !dbg !4141
  %13 = icmp ne i64 %12, 0, !dbg !4141
  br i1 %13, label %bb, label %bb2, !dbg !4141

bb2:                                              ; preds = %bb1
  %14 = load i8** %r1, align 8, !dbg !4142
  store i8* %14, i8** %0, align 8, !dbg !4142
  %15 = load i8** %0, align 8, !dbg !4142
  store i8* %15, i8** %retval, align 8, !dbg !4142
  %retval3 = load i8** %retval, !dbg !4142
  ret i8* %retval3, !dbg !4142
}

define i32 @main(i32, i8**) {
entry:
  call void @klee.ctor_stub()
  call void @__uClibc_main(i32 (i32, i8**, i8**)* bitcast (i32 (i32, i8**)* @__user_main to i32 (i32, i8**, i8**)*), i32 %0, i8** %1, void ()* null, void ()* null, void ()* null, i8* null)
  unreachable
}

define i32 @kill(i32 %pid, i32 %sig) nounwind {
entry:
  tail call void @klee_warning(i8* getelementptr inbounds ([17 x i8]* @.str245, i64 0, i64 0)) nounwind, !dbg !4143
  %0 = tail call i32* @__errno_location() nounwind readnone, !dbg !4145
  store i32 1, i32* %0, align 4, !dbg !4145
  ret i32 -1, !dbg !4146
}

define i32 @fork() nounwind {
entry:
  tail call void @klee_warning(i8* getelementptr inbounds ([18 x i8]* @.str43, i64 0, i64 0)) nounwind, !dbg !4147
  %0 = tail call i32* @__errno_location() nounwind readnone, !dbg !4149
  store i32 12, i32* %0, align 4, !dbg !4149
  ret i32 -1, !dbg !4150
}

declare void @klee_warning(i8*)

define i32 @vfork() nounwind {
entry:
  tail call void @klee_warning(i8* getelementptr inbounds ([18 x i8]* @.str43, i64 0, i64 0)) nounwind, !dbg !4151
  %0 = tail call i32* @__errno_location() nounwind readnone, !dbg !4154
  store i32 12, i32* %0, align 4, !dbg !4154
  ret i32 -1, !dbg !4152
}

define weak i32 @execve(i8* %file, i8** %argv, i8** %envp) nounwind {
entry:
  tail call void @klee_warning(i8* getelementptr inbounds ([18 x i8]* @.str144, i64 0, i64 0)) nounwind, !dbg !4155
  %0 = tail call i32* @__errno_location() nounwind readnone, !dbg !4155
  store i32 13, i32* %0, align 4, !dbg !4155
  ret i32 -1, !dbg !4156
}

declare void @llvm.dbg.value(metadata, i64, metadata) nounwind readnone

define weak i32 @execvp(i8* %file, i8** %argv) nounwind {
entry:
  tail call void @klee_warning(i8* getelementptr inbounds ([18 x i8]* @.str144, i64 0, i64 0)) nounwind, !dbg !4158
  %0 = tail call i32* @__errno_location() nounwind readnone, !dbg !4158
  store i32 13, i32* %0, align 4, !dbg !4158
  ret i32 -1, !dbg !4159
}

define weak i32 @execv(i8* %path, i8** %argv) nounwind {
entry:
  tail call void @klee_warning(i8* getelementptr inbounds ([18 x i8]* @.str144, i64 0, i64 0)) nounwind, !dbg !4161
  %0 = tail call i32* @__errno_location() nounwind readnone, !dbg !4161
  store i32 13, i32* %0, align 4, !dbg !4161
  ret i32 -1, !dbg !4162
}

define weak i32 @execle(i8* %path, i8* %arg, ...) nounwind {
entry:
  call void @klee_warning(i8* getelementptr inbounds ([18 x i8]* @.str144, i64 0, i64 0)) nounwind, !dbg !4164
  %0 = call i32* @__errno_location() nounwind readnone, !dbg !4164
  store i32 13, i32* %0, align 4, !dbg !4164
  ret i32 -1, !dbg !4165
}

define weak i32 @execlp(i8* %file, i8* %arg, ...) nounwind {
entry:
  call void @klee_warning(i8* getelementptr inbounds ([18 x i8]* @.str144, i64 0, i64 0)) nounwind, !dbg !4167
  %0 = call i32* @__errno_location() nounwind readnone, !dbg !4167
  store i32 13, i32* %0, align 4, !dbg !4167
  ret i32 -1, !dbg !4168
}

define weak i32 @execl(i8* %path, i8* %arg, ...) nounwind {
entry:
  call void @klee_warning(i8* getelementptr inbounds ([18 x i8]* @.str144, i64 0, i64 0)) nounwind, !dbg !4170
  %0 = call i32* @__errno_location() nounwind readnone, !dbg !4170
  store i32 13, i32* %0, align 4, !dbg !4170
  ret i32 -1, !dbg !4171
}

define void @longjmp(%struct.__jmp_buf_tag* nocapture %env, i32 %val) noreturn nounwind {
entry:
  tail call void @klee_report_error(i8* getelementptr inbounds ([10 x i8]* @.str3, i64 0, i64 0), i32 35, i8* getelementptr inbounds ([20 x i8]* @.str446, i64 0, i64 0), i8* getelementptr inbounds ([8 x i8]* @.str5, i64 0, i64 0)) noreturn nounwind, !dbg
  unreachable, !dbg !4173
}

declare void @klee_report_error(i8*, i32, i8*, i8*) noreturn

define weak i32 @_setjmp(%struct.__jmp_buf_tag* %__env) nounwind {
entry:
  tail call void @klee_warning_once(i8* getelementptr inbounds ([9 x i8]* @.str6, i64 0, i64 0)) nounwind, !dbg !4175
  ret i32 0, !dbg !4177
}

declare void @klee_warning_once(i8*)

define weak i32 @__syscall_rt_sigaction(i32 %signum, %struct.sigaction* %act, %struct.sigaction* %oldact, i64 %_something) nounwind {
entry:
  tail call void @klee_warning_once(i8* getelementptr inbounds ([18 x i8]* @.str12, i64 0, i64 0)) nounwind, !dbg !4178
  ret i32 0, !dbg !4180
}

define weak i32 @sigprocmask(i32 %how, %struct.__sigset_t* %set, %struct.__sigset_t* %oldset) nounwind {
entry:
  tail call void @klee_warning_once(i8* getelementptr inbounds ([18 x i8]* @.str12, i64 0, i64 0)) nounwind, !dbg !4181
  ret i32 0, !dbg !4183
}

define weak i32 @fdatasync(i32 %fd) nounwind {
entry:
  ret i32 0, !dbg !4184
}

define weak void @sync() nounwind {
entry:
  ret void, !dbg !4186
}

define weak i32 @__socketcall(i32 %type, i32* %args) nounwind {
entry:
  tail call void @klee_warning(i8* getelementptr inbounds ([24 x i8]* @.str11, i64 0, i64 0)) nounwind, !dbg !4188
  %0 = tail call i32* @__errno_location() nounwind readnone, !dbg !4190
  store i32 97, i32* %0, align 4, !dbg !4190
  ret i32 -1, !dbg !4191
}

define weak i32 @_IO_getc(%struct._IO_FILE* %f) nounwind {
entry:
  %0 = tail call i32 bitcast (i32 (%struct.FILE*)* @__fgetc_unlocked to i32 (%struct._IO_FILE*)*)(%struct._IO_FILE* %f) nounwind, !dbg !4192
  ret i32 %0, !dbg !4192
}

define weak i32 @_IO_putc(i32 %c, %struct._IO_FILE* %f) nounwind {
entry:
  %0 = tail call i32 bitcast (i32 (i32, %struct.FILE*)* @__fputc_unlocked to i32 (i32, %struct._IO_FILE*)*)(i32 %c, %struct._IO_FILE* %f) nounwind, !dbg !4194
  ret i32 %0, !dbg !4194
}

define weak i32 @mkdir(i8* %pathname, i32 %mode) nounwind {
entry:
  tail call void @klee_warning(i8* getelementptr inbounds ([15 x i8]* @.str10, i64 0, i64 0)) nounwind, !dbg !4196
  %0 = tail call i32* @__errno_location() nounwind readnone, !dbg !4198
  store i32 5, i32* %0, align 4, !dbg !4198
  ret i32 -1, !dbg !4199
}

define weak i32 @mkfifo(i8* %pathname, i32 %mode) nounwind {
entry:
  tail call void @klee_warning(i8* getelementptr inbounds ([15 x i8]* @.str10, i64 0, i64 0)) nounwind, !dbg !4200
  %0 = tail call i32* @__errno_location() nounwind readnone, !dbg !4202
  store i32 5, i32* %0, align 4, !dbg !4202
  ret i32 -1, !dbg !4203
}

define weak i32 @mknod(i8* %pathname, i32 %mode, i64 %dev) nounwind {
entry:
  tail call void @klee_warning(i8* getelementptr inbounds ([15 x i8]* @.str10, i64 0, i64 0)) nounwind, !dbg !4204
  %0 = tail call i32* @__errno_location() nounwind readnone, !dbg !4206
  store i32 5, i32* %0, align 4, !dbg !4206
  ret i32 -1, !dbg !4207
}

define weak i32 @pipe(i32* %filedes) nounwind {
entry:
  tail call void @klee_warning(i8* getelementptr inbounds ([18 x i8]* @.str9, i64 0, i64 0)) nounwind, !dbg !4208
  %0 = tail call i32* @__errno_location() nounwind readnone, !dbg !4210
  store i32 23, i32* %0, align 4, !dbg !4210
  ret i32 -1, !dbg !4211
}

define weak i32 @link(i8* %oldpath, i8* %newpath) nounwind {
entry:
  tail call void @klee_warning(i8* getelementptr inbounds ([17 x i8]* @.str250, i64 0, i64 0)) nounwind, !dbg !4212
  %0 = tail call i32* @__errno_location() nounwind readnone, !dbg !4214
  store i32 1, i32* %0, align 4, !dbg !4214
  ret i32 -1, !dbg !4215
}

define weak i32 @symlink(i8* %oldpath, i8* %newpath) nounwind {
entry:
  tail call void @klee_warning(i8* getelementptr inbounds ([17 x i8]* @.str250, i64 0, i64 0)) nounwind, !dbg !4216
  %0 = tail call i32* @__errno_location() nounwind readnone, !dbg !4218
  store i32 1, i32* %0, align 4, !dbg !4218
  ret i32 -1, !dbg !4219
}

define weak i32 @rename(i8* %oldpath, i8* %newpath) nounwind {
entry:
  tail call void @klee_warning(i8* getelementptr inbounds ([17 x i8]* @.str250, i64 0, i64 0)) nounwind, !dbg !4220
  %0 = tail call i32* @__errno_location() nounwind readnone, !dbg !4222
  store i32 1, i32* %0, align 4, !dbg !4222
  ret i32 -1, !dbg !4223
}

define weak i32 @nanosleep(%struct.rlimit* %req, %struct.rlimit* %rem) nounwind {
entry:
  ret i32 0, !dbg !4224
}

define weak i32 @clock_gettime(i32 %clk_id, %struct.rlimit* %res) nounwind {
entry:
  %tv = alloca %struct.rlimit, align 8
  %0 = call i32 @gettimeofday(%struct.rlimit* noalias %tv, %struct.__mbstate_t* noalias null) nounwind, !dbg !4226
  %1 = getelementptr inbounds %struct.rlimit* %tv, i64 0, i32 0, !dbg !4227
  %2 = load i64* %1, align 8, !dbg !4227
  %3 = getelementptr inbounds %struct.rlimit* %res, i64 0, i32 0, !dbg !4227
  store i64 %2, i64* %3, align 8, !dbg !4227
  %4 = getelementptr inbounds %struct.rlimit* %tv, i64 0, i32 1, !dbg !4228
  %5 = load i64* %4, align 8, !dbg !4228
  %6 = mul nsw i64 %5, 1000, !dbg !4228
  %7 = getelementptr inbounds %struct.rlimit* %res, i64 0, i32 1, !dbg !4228
  store i64 %6, i64* %7, align 8, !dbg !4228
  ret i32 0, !dbg !4229
}

define weak i32 @clock_settime(i32 %clk_id, %struct.rlimit* %res) nounwind {
entry:
  tail call void @klee_warning(i8* getelementptr inbounds ([17 x i8]* @.str250, i64 0, i64 0)) nounwind, !dbg !4230
  %0 = tail call i32* @__errno_location() nounwind readnone, !dbg !4232
  store i32 1, i32* %0, align 4, !dbg !4232
  ret i32 -1, !dbg !4233
}

define i64 @time(i64* %t) nounwind {
entry:
  %tv = alloca %struct.rlimit, align 8
  %0 = call i32 @gettimeofday(%struct.rlimit* noalias %tv, %struct.__mbstate_t* noalias null) nounwind, !dbg !4234
  %1 = icmp eq i64* %t, null, !dbg !4235
  %.phi.trans.insert = getelementptr inbounds %struct.rlimit* %tv, i64 0, i32 0
  %.pre = load i64* %.phi.trans.insert, align 8
  br i1 %1, label %entry.bb1_crit_edge, label %bb, !dbg !4235

entry.bb1_crit_edge:                              ; preds = %entry
  ret i64 %.pre, !dbg !4236

bb:                                               ; preds = %entry
  store i64 %.pre, i64* %t, align 8, !dbg !4237
  ret i64 %.pre, !dbg !4236
}

define weak i32 @gnu_dev_major(i64 %__dev) nounwind {
entry:
  %0 = lshr i64 %__dev, 8, !dbg !4238
  %1 = trunc i64 %0 to i32, !dbg !4238
  %2 = and i32 %1, 4095, !dbg !4238
  %3 = lshr i64 %__dev, 32, !dbg !4238
  %4 = trunc i64 %3 to i32, !dbg !4238
  %5 = and i32 %4, -4096, !dbg !4238
  %6 = or i32 %2, %5, !dbg !4238
  ret i32 %6, !dbg !4238
}

define weak i32 @gnu_dev_minor(i64 %__dev) nounwind {
entry:
  %0 = trunc i64 %__dev to i32, !dbg !4240
  %1 = and i32 %0, 255, !dbg !4240
  %2 = lshr i64 %__dev, 12, !dbg !4240
  %3 = trunc i64 %2 to i32, !dbg !4240
  %4 = and i32 %3, -256, !dbg !4240
  %5 = or i32 %4, %1, !dbg !4240
  ret i32 %5, !dbg !4240
}

define weak i64 @gnu_dev_makedev(i32 %__major, i32 %__minor) nounwind {
entry:
  %0 = and i32 %__minor, 255, !dbg !4242
  %1 = shl i32 %__major, 8
  %2 = and i32 %1, 1048320
  %3 = or i32 %0, %2, !dbg !4242
  %4 = zext i32 %3 to i64, !dbg !4242
  %5 = zext i32 %__minor to i64, !dbg !4242
  %6 = shl i64 %5, 12
  %7 = and i64 %6, 17592184995840
  %8 = zext i32 %__major to i64, !dbg !4242
  %9 = shl i64 %8, 32
  %10 = and i64 %9, -17592186044416
  %11 = or i64 %4, %10, !dbg !4242
  %12 = or i64 %11, %7, !dbg !4242
  ret i64 %12, !dbg !4242
}

define i64 @times(%struct.tms* nocapture %buf) nounwind {
entry:
  %0 = getelementptr inbounds %struct.tms* %buf, i64 0, i32 0, !dbg !4244
  store i64 0, i64* %0, align 8, !dbg !4244
  %1 = getelementptr inbounds %struct.tms* %buf, i64 0, i32 1, !dbg !4246
  store i64 0, i64* %1, align 8, !dbg !4246
  %2 = getelementptr inbounds %struct.tms* %buf, i64 0, i32 2, !dbg !4247
  store i64 0, i64* %2, align 8, !dbg !4247
  %3 = getelementptr inbounds %struct.tms* %buf, i64 0, i32 3, !dbg !4248
  store i64 0, i64* %3, align 8, !dbg !4248
  ret i64 0, !dbg !4249
}

define weak i32 @setuid(i32 %uid) nounwind {
entry:
  tail call void @klee_warning(i8* getelementptr inbounds ([32 x i8]* @.str48, i64 0, i64 0)) nounwind, !dbg !4250
  ret i32 0, !dbg !4252
}

define weak i32 @setgid(i32 %gid) nounwind {
entry:
  tail call void @klee_warning(i8* getelementptr inbounds ([32 x i8]* @.str48, i64 0, i64 0)) nounwind, !dbg !4253
  ret i32 0, !dbg !4255
}

define weak i32 @getloadavg(double* %loadavg, i32 %nelem) nounwind {
entry:
  tail call void @klee_warning(i8* getelementptr inbounds ([21 x i8]* @.str149, i64 0, i64 0)) nounwind, !dbg !4256
  ret i32 -1, !dbg !4258
}

define weak i32 @munmap(i8* %start, i64 %length) nounwind {
entry:
  tail call void @klee_warning(i8* getelementptr inbounds ([17 x i8]* @.str250, i64 0, i64 0)) nounwind, !dbg !4259
  %0 = tail call i32* @__errno_location() nounwind readnone, !dbg !4261
  store i32 1, i32* %0, align 4, !dbg !4261
  ret i32 -1, !dbg !4262
}

define weak i8* @mmap64(i8* %start, i64 %length, i32 %prot, i32 %flags, i32 %fd, i64 %offset) nounwind {
entry:
  tail call void @klee_warning(i8* getelementptr inbounds ([17 x i8]* @.str250, i64 0, i64 0)) nounwind, !dbg !4263
  %0 = tail call i32* @__errno_location() nounwind readnone, !dbg !4265
  store i32 1, i32* %0, align 4, !dbg !4265
  ret i8* inttoptr (i64 -1 to i8*), !dbg !4266
}

define weak i8* @mmap(i8* %start, i64 %length, i32 %prot, i32 %flags, i32 %fd, i64 %offset) nounwind {
entry:
  tail call void @klee_warning(i8* getelementptr inbounds ([17 x i8]* @.str250, i64 0, i64 0)) nounwind, !dbg !4267
  %0 = tail call i32* @__errno_location() nounwind readnone, !dbg !4269
  store i32 1, i32* %0, align 4, !dbg !4269
  ret i8* inttoptr (i64 -1 to i8*), !dbg !4270
}

define weak i64 @readahead(i32 %fd, i64* %offset, i64 %count) nounwind {
entry:
  tail call void @klee_warning(i8* getelementptr inbounds ([17 x i8]* @.str250, i64 0, i64 0)) nounwind, !dbg !4271
  %0 = tail call i32* @__errno_location() nounwind readnone, !dbg !4273
  store i32 1, i32* %0, align 4, !dbg !4273
  ret i64 -1, !dbg !4274
}

define weak i32 @pause() nounwind {
entry:
  tail call void @klee_warning(i8* getelementptr inbounds ([17 x i8]* @.str250, i64 0, i64 0)) nounwind, !dbg !4275
  %0 = tail call i32* @__errno_location() nounwind readnone, !dbg !4277
  store i32 1, i32* %0, align 4, !dbg !4277
  ret i32 -1, !dbg !4278
}

define weak i32 @munlock(i8* %addr, i64 %len) nounwind {
entry:
  tail call void @klee_warning(i8* getelementptr inbounds ([17 x i8]* @.str250, i64 0, i64 0)) nounwind, !dbg !4279
  %0 = tail call i32* @__errno_location() nounwind readnone, !dbg !4281
  store i32 1, i32* %0, align 4, !dbg !4281
  ret i32 -1, !dbg !4282
}

define weak i32 @mlock(i8* %addr, i64 %len) nounwind {
entry:
  tail call void @klee_warning(i8* getelementptr inbounds ([17 x i8]* @.str250, i64 0, i64 0)) nounwind, !dbg !4283
  %0 = tail call i32* @__errno_location() nounwind readnone, !dbg !4285
  store i32 1, i32* %0, align 4, !dbg !4285
  ret i32 -1, !dbg !4286
}

define weak i32 @reboot(i32 %flag) nounwind {
entry:
  tail call void @klee_warning(i8* getelementptr inbounds ([17 x i8]* @.str250, i64 0, i64 0)) nounwind, !dbg !4287
  %0 = tail call i32* @__errno_location() nounwind readnone, !dbg !4289
  store i32 1, i32* %0, align 4, !dbg !4289
  ret i32 -1, !dbg !4290
}

define weak i32 @settimeofday(%struct.rlimit* %tv, %struct.__mbstate_t* %tz) nounwind {
entry:
  tail call void @klee_warning(i8* getelementptr inbounds ([17 x i8]* @.str250, i64 0, i64 0)) nounwind, !dbg !4291
  %0 = tail call i32* @__errno_location() nounwind readnone, !dbg !4293
  store i32 1, i32* %0, align 4, !dbg !4293
  ret i32 -1, !dbg !4294
}

define weak i32 @setsid() nounwind {
entry:
  tail call void @klee_warning(i8* getelementptr inbounds ([17 x i8]* @.str250, i64 0, i64 0)) nounwind, !dbg !4295
  %0 = tail call i32* @__errno_location() nounwind readnone, !dbg !4297
  store i32 1, i32* %0, align 4, !dbg !4297
  ret i32 -1, !dbg !4298
}

define weak i32 @setrlimit64(i32 %resource, %struct.rlimit* %rlim) nounwind {
entry:
  tail call void @klee_warning(i8* getelementptr inbounds ([17 x i8]* @.str250, i64 0, i64 0)) nounwind, !dbg !4299
  %0 = tail call i32* @__errno_location() nounwind readnone, !dbg !4301
  store i32 1, i32* %0, align 4, !dbg !4301
  ret i32 -1, !dbg !4302
}

define weak i32 @setrlimit(i32 %resource, %struct.rlimit* %rlim) nounwind {
entry:
  tail call void @klee_warning(i8* getelementptr inbounds ([17 x i8]* @.str250, i64 0, i64 0)) nounwind, !dbg !4303
  %0 = tail call i32* @__errno_location() nounwind readnone, !dbg !4305
  store i32 1, i32* %0, align 4, !dbg !4305
  ret i32 -1, !dbg !4306
}

define weak i32 @setresuid(i32 %ruid, i32 %euid, i32 %suid) nounwind {
entry:
  tail call void @klee_warning(i8* getelementptr inbounds ([17 x i8]* @.str250, i64 0, i64 0)) nounwind, !dbg !4307
  %0 = tail call i32* @__errno_location() nounwind readnone, !dbg !4309
  store i32 1, i32* %0, align 4, !dbg !4309
  ret i32 -1, !dbg !4310
}

define weak i32 @setresgid(i32 %rgid, i32 %egid, i32 %sgid) nounwind {
entry:
  tail call void @klee_warning(i8* getelementptr inbounds ([17 x i8]* @.str250, i64 0, i64 0)) nounwind, !dbg !4311
  %0 = tail call i32* @__errno_location() nounwind readnone, !dbg !4313
  store i32 1, i32* %0, align 4, !dbg !4313
  ret i32 -1, !dbg !4314
}

define weak i32 @setpriority(i32 %which, i32 %who, i32 %prio) nounwind {
entry:
  tail call void @klee_warning(i8* getelementptr inbounds ([17 x i8]* @.str250, i64 0, i64 0)) nounwind, !dbg !4315
  %0 = tail call i32* @__errno_location() nounwind readnone, !dbg !4317
  store i32 1, i32* %0, align 4, !dbg !4317
  ret i32 -1, !dbg !4318
}

define weak i32 @setpgrp() nounwind {
entry:
  tail call void @klee_warning(i8* getelementptr inbounds ([17 x i8]* @.str250, i64 0, i64 0)) nounwind, !dbg !4319
  %0 = tail call i32* @__errno_location() nounwind readnone, !dbg !4321
  store i32 1, i32* %0, align 4, !dbg !4321
  ret i32 -1, !dbg !4322
}

define weak i32 @setpgid(i32 %pid, i32 %pgid) nounwind {
entry:
  tail call void @klee_warning(i8* getelementptr inbounds ([17 x i8]* @.str250, i64 0, i64 0)) nounwind, !dbg !4323
  %0 = tail call i32* @__errno_location() nounwind readnone, !dbg !4325
  store i32 1, i32* %0, align 4, !dbg !4325
  ret i32 -1, !dbg !4326
}

define weak i32 @sethostname(i8* %name, i64 %len) nounwind {
entry:
  tail call void @klee_warning(i8* getelementptr inbounds ([17 x i8]* @.str250, i64 0, i64 0)) nounwind, !dbg !4327
  %0 = tail call i32* @__errno_location() nounwind readnone, !dbg !4329
  store i32 1, i32* %0, align 4, !dbg !4329
  ret i32 -1, !dbg !4330
}

define weak i32 @setgroups(i64 %size, i32* %list) nounwind {
entry:
  tail call void @klee_warning(i8* getelementptr inbounds ([17 x i8]* @.str250, i64 0, i64 0)) nounwind, !dbg !4331
  %0 = tail call i32* @__errno_location() nounwind readnone, !dbg !4333
  store i32 1, i32* %0, align 4, !dbg !4333
  ret i32 -1, !dbg !4334
}

define weak i32 @swapoff(i8* %path) nounwind {
entry:
  tail call void @klee_warning(i8* getelementptr inbounds ([17 x i8]* @.str250, i64 0, i64 0)) nounwind, !dbg !4335
  %0 = tail call i32* @__errno_location() nounwind readnone, !dbg !4337
  store i32 1, i32* %0, align 4, !dbg !4337
  ret i32 -1, !dbg !4338
}

define weak i32 @swapon(i8* %path, i32 %swapflags) nounwind {
entry:
  tail call void @klee_warning(i8* getelementptr inbounds ([17 x i8]* @.str250, i64 0, i64 0)) nounwind, !dbg !4339
  %0 = tail call i32* @__errno_location() nounwind readnone, !dbg !4341
  store i32 1, i32* %0, align 4, !dbg !4341
  ret i32 -1, !dbg !4342
}

define weak i32 @umount2(i8* %target, i32 %flags) nounwind {
entry:
  tail call void @klee_warning(i8* getelementptr inbounds ([17 x i8]* @.str250, i64 0, i64 0)) nounwind, !dbg !4343
  %0 = tail call i32* @__errno_location() nounwind readnone, !dbg !4345
  store i32 1, i32* %0, align 4, !dbg !4345
  ret i32 -1, !dbg !4346
}

define weak i32 @umount(i8* %target) nounwind {
entry:
  tail call void @klee_warning(i8* getelementptr inbounds ([17 x i8]* @.str250, i64 0, i64 0)) nounwind, !dbg !4347
  %0 = tail call i32* @__errno_location() nounwind readnone, !dbg !4349
  store i32 1, i32* %0, align 4, !dbg !4349
  ret i32 -1, !dbg !4350
}

define weak i32 @mount(i8* %source, i8* %target, i8* %filesystemtype, i64 %mountflags, i8* %data) nounwind {
entry:
  tail call void @klee_warning(i8* getelementptr inbounds ([17 x i8]* @.str250, i64 0, i64 0)) nounwind, !dbg !4351
  %0 = tail call i32* @__errno_location() nounwind readnone, !dbg !4353
  store i32 1, i32* %0, align 4, !dbg !4353
  ret i32 -1, !dbg !4354
}

define weak i32 @acl_free(i8* %obj_p) nounwind {
entry:
  tail call void @klee_warning(i8* getelementptr inbounds ([18 x i8]* @.str351, i64 0, i64 0)) nounwind, !dbg !4355
  %0 = tail call i32* @__errno_location() nounwind readnone, !dbg !4357
  store i32 22, i32* %0, align 4, !dbg !4357
  ret i32 -1, !dbg !4358
}

define weak i32 @acl_set_file(i8* %path_p, i32 %type, %struct.__acl_ext* %acl) nounwind {
entry:
  tail call void @klee_warning(i8* getelementptr inbounds ([17 x i8]* @.str250, i64 0, i64 0)) nounwind, !dbg !4359
  %0 = tail call i32* @__errno_location() nounwind readnone, !dbg !4361
  store i32 1, i32* %0, align 4, !dbg !4361
  ret i32 -1, !dbg !4362
}

define weak i32 @acl_set_fd(i32 %fd, %struct.__acl_ext* %acl) nounwind {
entry:
  tail call void @klee_warning(i8* getelementptr inbounds ([17 x i8]* @.str250, i64 0, i64 0)) nounwind, !dbg !4363
  %0 = tail call i32* @__errno_location() nounwind readnone, !dbg !4365
  store i32 1, i32* %0, align 4, !dbg !4365
  ret i32 -1, !dbg !4366
}

define weak %struct.__acl_ext* @acl_get_file(i8* %pathname, i32 %type) nounwind {
entry:
  tail call void @klee_warning(i8* getelementptr inbounds ([19 x i8]* @.str452, i64 0, i64 0)) nounwind, !dbg !4367
  %0 = tail call i32* @__errno_location() nounwind readnone, !dbg !4369
  store i32 12, i32* %0, align 4, !dbg !4369
  ret %struct.__acl_ext* null, !dbg !4370
}

define weak %struct.__acl_ext* @acl_get_fd(i32 %fd) nounwind {
entry:
  tail call void @klee_warning(i8* getelementptr inbounds ([18 x i8]* @.str553, i64 0, i64 0)) nounwind, !dbg !4371
  %0 = tail call i32* @__errno_location() nounwind readnone, !dbg !4373
  store i32 12, i32* %0, align 4, !dbg !4373
  ret %struct.__acl_ext* null, !dbg !4374
}

define weak %struct.__acl_ext* @acl_from_mode(i32 %mode) nounwind {
entry:
  tail call void @klee_warning(i8* getelementptr inbounds ([18 x i8]* @.str553, i64 0, i64 0)) nounwind, !dbg !4375
  %0 = tail call i32* @__errno_location() nounwind readnone, !dbg !4377
  store i32 12, i32* %0, align 4, !dbg !4377
  ret %struct.__acl_ext* null, !dbg !4378
}

define weak i32 @acl_entries(%struct.__acl_ext* %acl) nounwind {
entry:
  tail call void @klee_warning(i8* getelementptr inbounds ([18 x i8]* @.str351, i64 0, i64 0)) nounwind, !dbg !4379
  %0 = tail call i32* @__errno_location() nounwind readnone, !dbg !4381
  store i32 22, i32* %0, align 4, !dbg !4381
  ret i32 -1, !dbg !4382
}

define weak i32 @acl_extended_file(i8 signext %path_p) nounwind {
entry:
  tail call void @klee_warning(i8* getelementptr inbounds ([18 x i8]* @.str654, i64 0, i64 0)) nounwind, !dbg !4383
  %0 = tail call i32* @__errno_location() nounwind readnone, !dbg !4385
  store i32 2, i32* %0, align 4, !dbg !4385
  ret i32 -1, !dbg !4386
}

define weak i32 @acl_delete_def_file(i8* %path_p) nounwind {
entry:
  tail call void @klee_warning(i8* getelementptr inbounds ([17 x i8]* @.str250, i64 0, i64 0)) nounwind, !dbg !4387
  %0 = tail call i32* @__errno_location() nounwind readnone, !dbg !4389
  store i32 1, i32* %0, align 4, !dbg !4389
  ret i32 -1, !dbg !4390
}

define weak i32 @waitid(i32 %idtype, i32 %id, %struct.siginfo_t* %infop, i32 %options) nounwind {
entry:
  tail call void @klee_warning(i8* getelementptr inbounds ([18 x i8]* @.str7, i64 0, i64 0)) nounwind, !dbg !4391
  %0 = tail call i32* @__errno_location() nounwind readnone, !dbg !4393
  store i32 10, i32* %0, align 4, !dbg !4393
  ret i32 -1, !dbg !4394
}

define weak i32 @waitpid(i32 %pid, i32* %status, i32 %options) nounwind {
entry:
  tail call void @klee_warning(i8* getelementptr inbounds ([18 x i8]* @.str7, i64 0, i64 0)) nounwind, !dbg !4395
  %0 = tail call i32* @__errno_location() nounwind readnone, !dbg !4397
  store i32 10, i32* %0, align 4, !dbg !4397
  ret i32 -1, !dbg !4398
}

define weak i32 @wait4(i32 %pid, i32* %status, i32 %options, %struct.rusage* %rusage) nounwind {
entry:
  tail call void @klee_warning(i8* getelementptr inbounds ([18 x i8]* @.str7, i64 0, i64 0)) nounwind, !dbg !4399
  %0 = tail call i32* @__errno_location() nounwind readnone, !dbg !4401
  store i32 10, i32* %0, align 4, !dbg !4401
  ret i32 -1, !dbg !4402
}

define weak i32 @wait3(i32* %status, i32 %options, %struct.rusage* %rusage) nounwind {
entry:
  tail call void @klee_warning(i8* getelementptr inbounds ([18 x i8]* @.str7, i64 0, i64 0)) nounwind, !dbg !4403
  %0 = tail call i32* @__errno_location() nounwind readnone, !dbg !4405
  store i32 10, i32* %0, align 4, !dbg !4405
  ret i32 -1, !dbg !4406
}

define weak i32 @wait(i32* %status) nounwind {
entry:
  tail call void @klee_warning(i8* getelementptr inbounds ([18 x i8]* @.str7, i64 0, i64 0)) nounwind, !dbg !4407
  %0 = tail call i32* @__errno_location() nounwind readnone, !dbg !4409
  store i32 10, i32* %0, align 4, !dbg !4409
  ret i32 -1, !dbg !4410
}

define weak i32 @futimes(i32 %fd, %struct.rlimit* %times) nounwind {
entry:
  tail call void @klee_warning(i8* getelementptr inbounds ([17 x i8]* @.str8, i64 0, i64 0)) nounwind, !dbg !4411
  %0 = tail call i32* @__errno_location() nounwind readnone, !dbg !4413
  store i32 9, i32* %0, align 4, !dbg !4413
  ret i32 -1, !dbg !4414
}

define weak i32 @utimes(i8* %filename, %struct.rlimit* %times) nounwind {
entry:
  tail call void @klee_warning(i8* getelementptr inbounds ([17 x i8]* @.str250, i64 0, i64 0)) nounwind, !dbg !4415
  %0 = tail call i32* @__errno_location() nounwind readnone, !dbg !4417
  store i32 1, i32* %0, align 4, !dbg !4417
  ret i32 -1, !dbg !4418
}

define weak i32 @utime(i8* %filename, %struct.rlimit* %buf) nounwind {
entry:
  tail call void @klee_warning(i8* getelementptr inbounds ([17 x i8]* @.str250, i64 0, i64 0)) nounwind, !dbg !4419
  %0 = tail call i32* @__errno_location() nounwind readnone, !dbg !4421
  store i32 1, i32* %0, align 4, !dbg !4421
  ret i32 -1, !dbg !4422
}

define weak i8* @canonicalize_file_name(i8* %name) nounwind {
entry:
  %0 = tail call noalias i8* @malloc(i64 4096) nounwind, !dbg !4423
  %1 = tail call i8* @realpath(i8* noalias %name, i8* noalias %0) nounwind, !dbg !4424
  %2 = icmp eq i8* %1, null, !dbg !4425
  br i1 %2, label %bb, label %bb1, !dbg !4425

bb:                                               ; preds = %entry
  tail call void @free(i8* %0) nounwind, !dbg !4426
  ret i8* %1, !dbg !4427

bb1:                                              ; preds = %entry
  ret i8* %1, !dbg !4427
}

define i32 @strverscmp(i8* nocapture %__s1, i8* nocapture %__s2) nounwind readonly {
entry:
  %0 = tail call i32 @strcmp(i8* %__s1, i8* %__s2) nounwind readonly, !dbg !4428
  ret i32 %0, !dbg !4429
}

define weak i32 @group_member(i32 %__gid) nounwind {
entry:
  %0 = tail call i32 @getgid() nounwind, !dbg !4430
  %1 = icmp eq i32 %0, %__gid, !dbg !4430
  br i1 %1, label %bb3, label %bb, !dbg !4430

bb:                                               ; preds = %entry
  %2 = tail call i32 @getegid() nounwind, !dbg !4430
  %3 = icmp eq i32 %2, %__gid, !dbg !4430
  %retval = zext i1 %3 to i32
  ret i32 %retval

bb3:                                              ; preds = %entry
  ret i32 1, !dbg !4430
}

define weak i32 @euidaccess(i8* %pathname, i32 %mode) nounwind {
entry:
  %0 = tail call i32 @access(i8* %pathname, i32 %mode) nounwind, !dbg !4432
  ret i32 %0, !dbg !4432
}

define weak i32 @eaccess(i8* %pathname, i32 %mode) nounwind {
entry:
  %0 = tail call i32 @euidaccess(i8* %pathname, i32 %mode) nounwind, !dbg !4434
  ret i32 %0, !dbg !4434
}

define weak i32 @utmpxname(i8* %file) nounwind {
entry:
  %0 = tail call i32 @utmpname(i8* %file) nounwind, !dbg !4436
  ret i32 0, !dbg !4438
}

define weak void @endutxent() nounwind {
entry:
  tail call void @endutent() nounwind, !dbg !4439
  ret void, !dbg !4441
}

define weak void @setutxent() nounwind {
entry:
  tail call void @setutent() nounwind, !dbg !4442
  ret void, !dbg !4444
}

define weak %struct.utmpx* @getutxent() nounwind {
entry:
  %0 = tail call %6* bitcast (%struct.utmp* ()* @getutent to %6* ()*)() nounwind, !dbg !4445
  %1 = bitcast %6* %0 to %struct.utmpx*, !dbg !4445
  ret %struct.utmpx* %1, !dbg !4445
}

declare i32 @gettimeofday(%struct.rlimit* noalias, %struct.__mbstate_t* noalias) nounwind

define i32 @open(i8* %pathname, i32 %flags, ...) nounwind {
entry:
  %ap = alloca [1 x %struct.__va_list_tag], align 8
  %0 = and i32 %flags, 64, !dbg !4447
  %1 = icmp eq i32 %0, 0, !dbg !4447
  br i1 %1, label %bb8, label %bb, !dbg !4447

bb:                                               ; preds = %entry
  %ap12 = bitcast [1 x %struct.__va_list_tag]* %ap to i8*, !dbg !4448
  call void @llvm.va_start(i8* %ap12), !dbg !4448
  %2 = getelementptr inbounds [1 x %struct.__va_list_tag]* %ap, i64 0, i64 0, i32 0
  %3 = load i32* %2, align 8, !dbg !4449
  %4 = icmp ugt i32 %3, 47
  br i1 %4, label %bb4, label %bb3, !dbg !4449

bb3:                                              ; preds = %bb
  %5 = getelementptr inbounds [1 x %struct.__va_list_tag]* %ap, i64 0, i64 0, i32 3
  %6 = load i8** %5, align 8, !dbg !4449
  %tmp = zext i32 %3 to i64
  %7 = ptrtoint i8* %6 to i64, !dbg !4449
  %8 = add i64 %7, %tmp, !dbg !4449
  %9 = inttoptr i64 %8 to i8*, !dbg !4449
  %10 = add i32 %3, 8, !dbg !4449
  store i32 %10, i32* %2, align 8, !dbg !4449
  br label %bb5, !dbg !4449

bb4:                                              ; preds = %bb
  %11 = getelementptr inbounds [1 x %struct.__va_list_tag]* %ap, i64 0, i64 0, i32 2
  %12 = load i8** %11, align 8, !dbg !4449
  %13 = getelementptr inbounds i8* %12, i64 8, !dbg !4449
  store i8* %13, i8** %11, align 8, !dbg !4449
  br label %bb5, !dbg !4449

bb5:                                              ; preds = %bb4, %bb3
  %addr.24.0 = phi i8* [ %12, %bb4 ], [ %9, %bb3 ]
  %14 = bitcast i8* %addr.24.0 to i32*, !dbg !4449
  %15 = load i32* %14, align 4, !dbg !4449
  call void @llvm.va_end(i8* %ap12), !dbg !4450
  br label %bb8, !dbg !4450

bb8:                                              ; preds = %bb5, %entry
  %mode.0 = phi i32 [ %15, %bb5 ], [ 0, %entry ]
  %16 = call i32 @__fd_open(i8* %pathname, i32 %flags, i32 %mode.0) nounwind, !dbg !4451
  ret i32 %16, !dbg !4451
}

define weak i32 @fstat64(i32 %fd, %struct.stat64* %buf) nounwind {
entry:
  %0 = tail call i32 @__fd_fstat(i32 %fd, %struct.stat64* %buf) nounwind, !dbg !4452
  ret i32 %0, !dbg !4452
}

define i32 @fstat(i32 %fd, %struct.stat64* nocapture %buf) nounwind {
entry:
  %tmp = alloca %struct.stat64, align 8
  %0 = call i32 @__fd_fstat(i32 %fd, %struct.stat64* %tmp) nounwind, !dbg !4454
  %1 = getelementptr inbounds %struct.stat64* %tmp, i64 0, i32 0, !dbg !4455
  %2 = load i64* %1, align 8, !dbg !4455
  %3 = getelementptr inbounds %struct.stat64* %buf, i64 0, i32 0, !dbg !4455
  store i64 %2, i64* %3, align 8, !dbg !4455
  %4 = getelementptr inbounds %struct.stat64* %tmp, i64 0, i32 1, !dbg !4458
  %5 = load i64* %4, align 8, !dbg !4458
  %6 = getelementptr inbounds %struct.stat64* %buf, i64 0, i32 1, !dbg !4458
  store i64 %5, i64* %6, align 8, !dbg !4458
  %7 = getelementptr inbounds %struct.stat64* %tmp, i64 0, i32 3, !dbg !4459
  %8 = load i32* %7, align 8, !dbg !4459
  %9 = getelementptr inbounds %struct.stat64* %buf, i64 0, i32 3, !dbg !4459
  store i32 %8, i32* %9, align 8, !dbg !4459
  %10 = getelementptr inbounds %struct.stat64* %tmp, i64 0, i32 2, !dbg !4460
  %11 = load i64* %10, align 8, !dbg !4460
  %12 = getelementptr inbounds %struct.stat64* %buf, i64 0, i32 2, !dbg !4460
  store i64 %11, i64* %12, align 8, !dbg !4460
  %13 = getelementptr inbounds %struct.stat64* %tmp, i64 0, i32 4, !dbg !4461
  %14 = load i32* %13, align 4, !dbg !4461
  %15 = getelementptr inbounds %struct.stat64* %buf, i64 0, i32 4, !dbg !4461
  store i32 %14, i32* %15, align 4, !dbg !4461
  %16 = getelementptr inbounds %struct.stat64* %tmp, i64 0, i32 5, !dbg !4462
  %17 = load i32* %16, align 8, !dbg !4462
  %18 = getelementptr inbounds %struct.stat64* %buf, i64 0, i32 5, !dbg !4462
  store i32 %17, i32* %18, align 8, !dbg !4462
  %19 = getelementptr inbounds %struct.stat64* %tmp, i64 0, i32 7, !dbg !4463
  %20 = load i64* %19, align 8, !dbg !4463
  %21 = getelementptr inbounds %struct.stat64* %buf, i64 0, i32 7, !dbg !4463
  store i64 %20, i64* %21, align 8, !dbg !4463
  %22 = getelementptr inbounds %struct.stat64* %tmp, i64 0, i32 8, !dbg !4464
  %23 = load i64* %22, align 8, !dbg !4464
  %24 = getelementptr inbounds %struct.stat64* %buf, i64 0, i32 8, !dbg !4464
  store i64 %23, i64* %24, align 8, !dbg !4464
  %25 = getelementptr inbounds %struct.stat64* %tmp, i64 0, i32 11, i32 0
  %26 = load i64* %25, align 8, !dbg !4465
  %27 = getelementptr inbounds %struct.stat64* %buf, i64 0, i32 11, i32 0
  store i64 %26, i64* %27, align 8, !dbg !4465
  %28 = getelementptr inbounds %struct.stat64* %tmp, i64 0, i32 12, i32 0
  %29 = load i64* %28, align 8, !dbg !4466
  %30 = getelementptr inbounds %struct.stat64* %buf, i64 0, i32 12, i32 0
  store i64 %29, i64* %30, align 8, !dbg !4466
  %31 = getelementptr inbounds %struct.stat64* %tmp, i64 0, i32 13, i32 0
  %32 = load i64* %31, align 8, !dbg !4467
  %33 = getelementptr inbounds %struct.stat64* %buf, i64 0, i32 13, i32 0
  store i64 %32, i64* %33, align 8, !dbg !4467
  %34 = getelementptr inbounds %struct.stat64* %tmp, i64 0, i32 9, !dbg !4468
  %35 = load i64* %34, align 8, !dbg !4468
  %36 = getelementptr inbounds %struct.stat64* %buf, i64 0, i32 9, !dbg !4468
  store i64 %35, i64* %36, align 8, !dbg !4468
  %37 = getelementptr inbounds %struct.stat64* %tmp, i64 0, i32 10, !dbg !4469
  %38 = load i64* %37, align 8, !dbg !4469
  %39 = getelementptr inbounds %struct.stat64* %buf, i64 0, i32 10, !dbg !4469
  store i64 %38, i64* %39, align 8, !dbg !4469
  ret i32 %0, !dbg !4470
}

define i32 @__fxstat(i32 %vers, i32 %fd, %struct.stat64* nocapture %buf) nounwind {
entry:
  %tmp = alloca %struct.stat64, align 8
  %0 = call i32 @__fd_fstat(i32 %fd, %struct.stat64* %tmp) nounwind, !dbg !4471
  %1 = getelementptr inbounds %struct.stat64* %tmp, i64 0, i32 0, !dbg !4472
  %2 = load i64* %1, align 8, !dbg !4472
  %3 = getelementptr inbounds %struct.stat64* %buf, i64 0, i32 0, !dbg !4472
  store i64 %2, i64* %3, align 8, !dbg !4472
  %4 = getelementptr inbounds %struct.stat64* %tmp, i64 0, i32 1, !dbg !4474
  %5 = load i64* %4, align 8, !dbg !4474
  %6 = getelementptr inbounds %struct.stat64* %buf, i64 0, i32 1, !dbg !4474
  store i64 %5, i64* %6, align 8, !dbg !4474
  %7 = getelementptr inbounds %struct.stat64* %tmp, i64 0, i32 3, !dbg !4475
  %8 = load i32* %7, align 8, !dbg !4475
  %9 = getelementptr inbounds %struct.stat64* %buf, i64 0, i32 3, !dbg !4475
  store i32 %8, i32* %9, align 8, !dbg !4475
  %10 = getelementptr inbounds %struct.stat64* %tmp, i64 0, i32 2, !dbg !4476
  %11 = load i64* %10, align 8, !dbg !4476
  %12 = getelementptr inbounds %struct.stat64* %buf, i64 0, i32 2, !dbg !4476
  store i64 %11, i64* %12, align 8, !dbg !4476
  %13 = getelementptr inbounds %struct.stat64* %tmp, i64 0, i32 4, !dbg !4477
  %14 = load i32* %13, align 4, !dbg !4477
  %15 = getelementptr inbounds %struct.stat64* %buf, i64 0, i32 4, !dbg !4477
  store i32 %14, i32* %15, align 4, !dbg !4477
  %16 = getelementptr inbounds %struct.stat64* %tmp, i64 0, i32 5, !dbg !4478
  %17 = load i32* %16, align 8, !dbg !4478
  %18 = getelementptr inbounds %struct.stat64* %buf, i64 0, i32 5, !dbg !4478
  store i32 %17, i32* %18, align 8, !dbg !4478
  %19 = getelementptr inbounds %struct.stat64* %tmp, i64 0, i32 7, !dbg !4479
  %20 = load i64* %19, align 8, !dbg !4479
  %21 = getelementptr inbounds %struct.stat64* %buf, i64 0, i32 7, !dbg !4479
  store i64 %20, i64* %21, align 8, !dbg !4479
  %22 = getelementptr inbounds %struct.stat64* %tmp, i64 0, i32 8, !dbg !4480
  %23 = load i64* %22, align 8, !dbg !4480
  %24 = getelementptr inbounds %struct.stat64* %buf, i64 0, i32 8, !dbg !4480
  store i64 %23, i64* %24, align 8, !dbg !4480
  %25 = getelementptr inbounds %struct.stat64* %tmp, i64 0, i32 11, i32 0
  %26 = load i64* %25, align 8, !dbg !4481
  %27 = getelementptr inbounds %struct.stat64* %buf, i64 0, i32 11, i32 0
  store i64 %26, i64* %27, align 8, !dbg !4481
  %28 = getelementptr inbounds %struct.stat64* %tmp, i64 0, i32 12, i32 0
  %29 = load i64* %28, align 8, !dbg !4482
  %30 = getelementptr inbounds %struct.stat64* %buf, i64 0, i32 12, i32 0
  store i64 %29, i64* %30, align 8, !dbg !4482
  %31 = getelementptr inbounds %struct.stat64* %tmp, i64 0, i32 13, i32 0
  %32 = load i64* %31, align 8, !dbg !4483
  %33 = getelementptr inbounds %struct.stat64* %buf, i64 0, i32 13, i32 0
  store i64 %32, i64* %33, align 8, !dbg !4483
  %34 = getelementptr inbounds %struct.stat64* %tmp, i64 0, i32 9, !dbg !4484
  %35 = load i64* %34, align 8, !dbg !4484
  %36 = getelementptr inbounds %struct.stat64* %buf, i64 0, i32 9, !dbg !4484
  store i64 %35, i64* %36, align 8, !dbg !4484
  %37 = getelementptr inbounds %struct.stat64* %tmp, i64 0, i32 10, !dbg !4485
  %38 = load i64* %37, align 8, !dbg !4485
  %39 = getelementptr inbounds %struct.stat64* %buf, i64 0, i32 10, !dbg !4485
  store i64 %38, i64* %39, align 8, !dbg !4485
  ret i32 %0, !dbg !4486
}

define weak i32 @lstat64(i8* %path, %struct.stat64* %buf) nounwind {
entry:
  %0 = tail call i32 @__fd_lstat(i8* %path, %struct.stat64* %buf) nounwind, !dbg !4487
  ret i32 %0, !dbg !4487
}

define i32 @lstat(i8* %path, %struct.stat64* nocapture %buf) nounwind {
entry:
  %tmp = alloca %struct.stat64, align 8
  %0 = call i32 @__fd_lstat(i8* %path, %struct.stat64* %tmp) nounwind, !dbg !4489
  %1 = getelementptr inbounds %struct.stat64* %tmp, i64 0, i32 0, !dbg !4490
  %2 = load i64* %1, align 8, !dbg !4490
  %3 = getelementptr inbounds %struct.stat64* %buf, i64 0, i32 0, !dbg !4490
  store i64 %2, i64* %3, align 8, !dbg !4490
  %4 = getelementptr inbounds %struct.stat64* %tmp, i64 0, i32 1, !dbg !4492
  %5 = load i64* %4, align 8, !dbg !4492
  %6 = getelementptr inbounds %struct.stat64* %buf, i64 0, i32 1, !dbg !4492
  store i64 %5, i64* %6, align 8, !dbg !4492
  %7 = getelementptr inbounds %struct.stat64* %tmp, i64 0, i32 3, !dbg !4493
  %8 = load i32* %7, align 8, !dbg !4493
  %9 = getelementptr inbounds %struct.stat64* %buf, i64 0, i32 3, !dbg !4493
  store i32 %8, i32* %9, align 8, !dbg !4493
  %10 = getelementptr inbounds %struct.stat64* %tmp, i64 0, i32 2, !dbg !4494
  %11 = load i64* %10, align 8, !dbg !4494
  %12 = getelementptr inbounds %struct.stat64* %buf, i64 0, i32 2, !dbg !4494
  store i64 %11, i64* %12, align 8, !dbg !4494
  %13 = getelementptr inbounds %struct.stat64* %tmp, i64 0, i32 4, !dbg !4495
  %14 = load i32* %13, align 4, !dbg !4495
  %15 = getelementptr inbounds %struct.stat64* %buf, i64 0, i32 4, !dbg !4495
  store i32 %14, i32* %15, align 4, !dbg !4495
  %16 = getelementptr inbounds %struct.stat64* %tmp, i64 0, i32 5, !dbg !4496
  %17 = load i32* %16, align 8, !dbg !4496
  %18 = getelementptr inbounds %struct.stat64* %buf, i64 0, i32 5, !dbg !4496
  store i32 %17, i32* %18, align 8, !dbg !4496
  %19 = getelementptr inbounds %struct.stat64* %tmp, i64 0, i32 7, !dbg !4497
  %20 = load i64* %19, align 8, !dbg !4497
  %21 = getelementptr inbounds %struct.stat64* %buf, i64 0, i32 7, !dbg !4497
  store i64 %20, i64* %21, align 8, !dbg !4497
  %22 = getelementptr inbounds %struct.stat64* %tmp, i64 0, i32 8, !dbg !4498
  %23 = load i64* %22, align 8, !dbg !4498
  %24 = getelementptr inbounds %struct.stat64* %buf, i64 0, i32 8, !dbg !4498
  store i64 %23, i64* %24, align 8, !dbg !4498
  %25 = getelementptr inbounds %struct.stat64* %tmp, i64 0, i32 11, i32 0
  %26 = load i64* %25, align 8, !dbg !4499
  %27 = getelementptr inbounds %struct.stat64* %buf, i64 0, i32 11, i32 0
  store i64 %26, i64* %27, align 8, !dbg !4499
  %28 = getelementptr inbounds %struct.stat64* %tmp, i64 0, i32 12, i32 0
  %29 = load i64* %28, align 8, !dbg !4500
  %30 = getelementptr inbounds %struct.stat64* %buf, i64 0, i32 12, i32 0
  store i64 %29, i64* %30, align 8, !dbg !4500
  %31 = getelementptr inbounds %struct.stat64* %tmp, i64 0, i32 13, i32 0
  %32 = load i64* %31, align 8, !dbg !4501
  %33 = getelementptr inbounds %struct.stat64* %buf, i64 0, i32 13, i32 0
  store i64 %32, i64* %33, align 8, !dbg !4501
  %34 = getelementptr inbounds %struct.stat64* %tmp, i64 0, i32 9, !dbg !4502
  %35 = load i64* %34, align 8, !dbg !4502
  %36 = getelementptr inbounds %struct.stat64* %buf, i64 0, i32 9, !dbg !4502
  store i64 %35, i64* %36, align 8, !dbg !4502
  %37 = getelementptr inbounds %struct.stat64* %tmp, i64 0, i32 10, !dbg !4503
  %38 = load i64* %37, align 8, !dbg !4503
  %39 = getelementptr inbounds %struct.stat64* %buf, i64 0, i32 10, !dbg !4503
  store i64 %38, i64* %39, align 8, !dbg !4503
  ret i32 %0, !dbg !4504
}

define i32 @__lxstat(i32 %vers, i8* %path, %struct.stat64* nocapture %buf) nounwind {
entry:
  %tmp = alloca %struct.stat64, align 8
  %0 = call i32 @__fd_lstat(i8* %path, %struct.stat64* %tmp) nounwind, !dbg !4505
  %1 = getelementptr inbounds %struct.stat64* %tmp, i64 0, i32 0, !dbg !4506
  %2 = load i64* %1, align 8, !dbg !4506
  %3 = getelementptr inbounds %struct.stat64* %buf, i64 0, i32 0, !dbg !4506
  store i64 %2, i64* %3, align 8, !dbg !4506
  %4 = getelementptr inbounds %struct.stat64* %tmp, i64 0, i32 1, !dbg !4508
  %5 = load i64* %4, align 8, !dbg !4508
  %6 = getelementptr inbounds %struct.stat64* %buf, i64 0, i32 1, !dbg !4508
  store i64 %5, i64* %6, align 8, !dbg !4508
  %7 = getelementptr inbounds %struct.stat64* %tmp, i64 0, i32 3, !dbg !4509
  %8 = load i32* %7, align 8, !dbg !4509
  %9 = getelementptr inbounds %struct.stat64* %buf, i64 0, i32 3, !dbg !4509
  store i32 %8, i32* %9, align 8, !dbg !4509
  %10 = getelementptr inbounds %struct.stat64* %tmp, i64 0, i32 2, !dbg !4510
  %11 = load i64* %10, align 8, !dbg !4510
  %12 = getelementptr inbounds %struct.stat64* %buf, i64 0, i32 2, !dbg !4510
  store i64 %11, i64* %12, align 8, !dbg !4510
  %13 = getelementptr inbounds %struct.stat64* %tmp, i64 0, i32 4, !dbg !4511
  %14 = load i32* %13, align 4, !dbg !4511
  %15 = getelementptr inbounds %struct.stat64* %buf, i64 0, i32 4, !dbg !4511
  store i32 %14, i32* %15, align 4, !dbg !4511
  %16 = getelementptr inbounds %struct.stat64* %tmp, i64 0, i32 5, !dbg !4512
  %17 = load i32* %16, align 8, !dbg !4512
  %18 = getelementptr inbounds %struct.stat64* %buf, i64 0, i32 5, !dbg !4512
  store i32 %17, i32* %18, align 8, !dbg !4512
  %19 = getelementptr inbounds %struct.stat64* %tmp, i64 0, i32 7, !dbg !4513
  %20 = load i64* %19, align 8, !dbg !4513
  %21 = getelementptr inbounds %struct.stat64* %buf, i64 0, i32 7, !dbg !4513
  store i64 %20, i64* %21, align 8, !dbg !4513
  %22 = getelementptr inbounds %struct.stat64* %tmp, i64 0, i32 8, !dbg !4514
  %23 = load i64* %22, align 8, !dbg !4514
  %24 = getelementptr inbounds %struct.stat64* %buf, i64 0, i32 8, !dbg !4514
  store i64 %23, i64* %24, align 8, !dbg !4514
  %25 = getelementptr inbounds %struct.stat64* %tmp, i64 0, i32 11, i32 0
  %26 = load i64* %25, align 8, !dbg !4515
  %27 = getelementptr inbounds %struct.stat64* %buf, i64 0, i32 11, i32 0
  store i64 %26, i64* %27, align 8, !dbg !4515
  %28 = getelementptr inbounds %struct.stat64* %tmp, i64 0, i32 12, i32 0
  %29 = load i64* %28, align 8, !dbg !4516
  %30 = getelementptr inbounds %struct.stat64* %buf, i64 0, i32 12, i32 0
  store i64 %29, i64* %30, align 8, !dbg !4516
  %31 = getelementptr inbounds %struct.stat64* %tmp, i64 0, i32 13, i32 0
  %32 = load i64* %31, align 8, !dbg !4517
  %33 = getelementptr inbounds %struct.stat64* %buf, i64 0, i32 13, i32 0
  store i64 %32, i64* %33, align 8, !dbg !4517
  %34 = getelementptr inbounds %struct.stat64* %tmp, i64 0, i32 9, !dbg !4518
  %35 = load i64* %34, align 8, !dbg !4518
  %36 = getelementptr inbounds %struct.stat64* %buf, i64 0, i32 9, !dbg !4518
  store i64 %35, i64* %36, align 8, !dbg !4518
  %37 = getelementptr inbounds %struct.stat64* %tmp, i64 0, i32 10, !dbg !4519
  %38 = load i64* %37, align 8, !dbg !4519
  %39 = getelementptr inbounds %struct.stat64* %buf, i64 0, i32 10, !dbg !4519
  store i64 %38, i64* %39, align 8, !dbg !4519
  ret i32 %0, !dbg !4520
}

define weak i32 @stat64(i8* %path, %struct.stat64* %buf) nounwind {
entry:
  %0 = tail call i32 @__fd_stat(i8* %path, %struct.stat64* %buf) nounwind, !dbg !4521
  ret i32 %0, !dbg !4521
}

define i32 @stat(i8* %path, %struct.stat64* nocapture %buf) nounwind {
entry:
  %tmp = alloca %struct.stat64, align 8
  %0 = call i32 @__fd_stat(i8* %path, %struct.stat64* %tmp) nounwind, !dbg !4523
  %1 = getelementptr inbounds %struct.stat64* %tmp, i64 0, i32 0, !dbg !4524
  %2 = load i64* %1, align 8, !dbg !4524
  %3 = getelementptr inbounds %struct.stat64* %buf, i64 0, i32 0, !dbg !4524
  store i64 %2, i64* %3, align 8, !dbg !4524
  %4 = getelementptr inbounds %struct.stat64* %tmp, i64 0, i32 1, !dbg !4526
  %5 = load i64* %4, align 8, !dbg !4526
  %6 = getelementptr inbounds %struct.stat64* %buf, i64 0, i32 1, !dbg !4526
  store i64 %5, i64* %6, align 8, !dbg !4526
  %7 = getelementptr inbounds %struct.stat64* %tmp, i64 0, i32 3, !dbg !4527
  %8 = load i32* %7, align 8, !dbg !4527
  %9 = getelementptr inbounds %struct.stat64* %buf, i64 0, i32 3, !dbg !4527
  store i32 %8, i32* %9, align 8, !dbg !4527
  %10 = getelementptr inbounds %struct.stat64* %tmp, i64 0, i32 2, !dbg !4528
  %11 = load i64* %10, align 8, !dbg !4528
  %12 = getelementptr inbounds %struct.stat64* %buf, i64 0, i32 2, !dbg !4528
  store i64 %11, i64* %12, align 8, !dbg !4528
  %13 = getelementptr inbounds %struct.stat64* %tmp, i64 0, i32 4, !dbg !4529
  %14 = load i32* %13, align 4, !dbg !4529
  %15 = getelementptr inbounds %struct.stat64* %buf, i64 0, i32 4, !dbg !4529
  store i32 %14, i32* %15, align 4, !dbg !4529
  %16 = getelementptr inbounds %struct.stat64* %tmp, i64 0, i32 5, !dbg !4530
  %17 = load i32* %16, align 8, !dbg !4530
  %18 = getelementptr inbounds %struct.stat64* %buf, i64 0, i32 5, !dbg !4530
  store i32 %17, i32* %18, align 8, !dbg !4530
  %19 = getelementptr inbounds %struct.stat64* %tmp, i64 0, i32 7, !dbg !4531
  %20 = load i64* %19, align 8, !dbg !4531
  %21 = getelementptr inbounds %struct.stat64* %buf, i64 0, i32 7, !dbg !4531
  store i64 %20, i64* %21, align 8, !dbg !4531
  %22 = getelementptr inbounds %struct.stat64* %tmp, i64 0, i32 8, !dbg !4532
  %23 = load i64* %22, align 8, !dbg !4532
  %24 = getelementptr inbounds %struct.stat64* %buf, i64 0, i32 8, !dbg !4532
  store i64 %23, i64* %24, align 8, !dbg !4532
  %25 = getelementptr inbounds %struct.stat64* %tmp, i64 0, i32 11, i32 0
  %26 = load i64* %25, align 8, !dbg !4533
  %27 = getelementptr inbounds %struct.stat64* %buf, i64 0, i32 11, i32 0
  store i64 %26, i64* %27, align 8, !dbg !4533
  %28 = getelementptr inbounds %struct.stat64* %tmp, i64 0, i32 12, i32 0
  %29 = load i64* %28, align 8, !dbg !4534
  %30 = getelementptr inbounds %struct.stat64* %buf, i64 0, i32 12, i32 0
  store i64 %29, i64* %30, align 8, !dbg !4534
  %31 = getelementptr inbounds %struct.stat64* %tmp, i64 0, i32 13, i32 0
  %32 = load i64* %31, align 8, !dbg !4535
  %33 = getelementptr inbounds %struct.stat64* %buf, i64 0, i32 13, i32 0
  store i64 %32, i64* %33, align 8, !dbg !4535
  %34 = getelementptr inbounds %struct.stat64* %tmp, i64 0, i32 9, !dbg !4536
  %35 = load i64* %34, align 8, !dbg !4536
  %36 = getelementptr inbounds %struct.stat64* %buf, i64 0, i32 9, !dbg !4536
  store i64 %35, i64* %36, align 8, !dbg !4536
  %37 = getelementptr inbounds %struct.stat64* %tmp, i64 0, i32 10, !dbg !4537
  %38 = load i64* %37, align 8, !dbg !4537
  %39 = getelementptr inbounds %struct.stat64* %buf, i64 0, i32 10, !dbg !4537
  store i64 %38, i64* %39, align 8, !dbg !4537
  ret i32 %0, !dbg !4538
}

define i32 @__xstat(i32 %vers, i8* %path, %struct.stat64* nocapture %buf) nounwind {
entry:
  %tmp = alloca %struct.stat64, align 8
  %0 = call i32 @__fd_stat(i8* %path, %struct.stat64* %tmp) nounwind, !dbg !4539
  %1 = getelementptr inbounds %struct.stat64* %tmp, i64 0, i32 0, !dbg !4540
  %2 = load i64* %1, align 8, !dbg !4540
  %3 = getelementptr inbounds %struct.stat64* %buf, i64 0, i32 0, !dbg !4540
  store i64 %2, i64* %3, align 8, !dbg !4540
  %4 = getelementptr inbounds %struct.stat64* %tmp, i64 0, i32 1, !dbg !4542
  %5 = load i64* %4, align 8, !dbg !4542
  %6 = getelementptr inbounds %struct.stat64* %buf, i64 0, i32 1, !dbg !4542
  store i64 %5, i64* %6, align 8, !dbg !4542
  %7 = getelementptr inbounds %struct.stat64* %tmp, i64 0, i32 3, !dbg !4543
  %8 = load i32* %7, align 8, !dbg !4543
  %9 = getelementptr inbounds %struct.stat64* %buf, i64 0, i32 3, !dbg !4543
  store i32 %8, i32* %9, align 8, !dbg !4543
  %10 = getelementptr inbounds %struct.stat64* %tmp, i64 0, i32 2, !dbg !4544
  %11 = load i64* %10, align 8, !dbg !4544
  %12 = getelementptr inbounds %struct.stat64* %buf, i64 0, i32 2, !dbg !4544
  store i64 %11, i64* %12, align 8, !dbg !4544
  %13 = getelementptr inbounds %struct.stat64* %tmp, i64 0, i32 4, !dbg !4545
  %14 = load i32* %13, align 4, !dbg !4545
  %15 = getelementptr inbounds %struct.stat64* %buf, i64 0, i32 4, !dbg !4545
  store i32 %14, i32* %15, align 4, !dbg !4545
  %16 = getelementptr inbounds %struct.stat64* %tmp, i64 0, i32 5, !dbg !4546
  %17 = load i32* %16, align 8, !dbg !4546
  %18 = getelementptr inbounds %struct.stat64* %buf, i64 0, i32 5, !dbg !4546
  store i32 %17, i32* %18, align 8, !dbg !4546
  %19 = getelementptr inbounds %struct.stat64* %tmp, i64 0, i32 7, !dbg !4547
  %20 = load i64* %19, align 8, !dbg !4547
  %21 = getelementptr inbounds %struct.stat64* %buf, i64 0, i32 7, !dbg !4547
  store i64 %20, i64* %21, align 8, !dbg !4547
  %22 = getelementptr inbounds %struct.stat64* %tmp, i64 0, i32 8, !dbg !4548
  %23 = load i64* %22, align 8, !dbg !4548
  %24 = getelementptr inbounds %struct.stat64* %buf, i64 0, i32 8, !dbg !4548
  store i64 %23, i64* %24, align 8, !dbg !4548
  %25 = getelementptr inbounds %struct.stat64* %tmp, i64 0, i32 11, i32 0
  %26 = load i64* %25, align 8, !dbg !4549
  %27 = getelementptr inbounds %struct.stat64* %buf, i64 0, i32 11, i32 0
  store i64 %26, i64* %27, align 8, !dbg !4549
  %28 = getelementptr inbounds %struct.stat64* %tmp, i64 0, i32 12, i32 0
  %29 = load i64* %28, align 8, !dbg !4550
  %30 = getelementptr inbounds %struct.stat64* %buf, i64 0, i32 12, i32 0
  store i64 %29, i64* %30, align 8, !dbg !4550
  %31 = getelementptr inbounds %struct.stat64* %tmp, i64 0, i32 13, i32 0
  %32 = load i64* %31, align 8, !dbg !4551
  %33 = getelementptr inbounds %struct.stat64* %buf, i64 0, i32 13, i32 0
  store i64 %32, i64* %33, align 8, !dbg !4551
  %34 = getelementptr inbounds %struct.stat64* %tmp, i64 0, i32 9, !dbg !4552
  %35 = load i64* %34, align 8, !dbg !4552
  %36 = getelementptr inbounds %struct.stat64* %buf, i64 0, i32 9, !dbg !4552
  store i64 %35, i64* %36, align 8, !dbg !4552
  %37 = getelementptr inbounds %struct.stat64* %tmp, i64 0, i32 10, !dbg !4553
  %38 = load i64* %37, align 8, !dbg !4553
  %39 = getelementptr inbounds %struct.stat64* %buf, i64 0, i32 10, !dbg !4553
  store i64 %38, i64* %39, align 8, !dbg !4553
  ret i32 %0, !dbg !4554
}

define weak i64 @lseek64(i32 %fd, i64 %off, i32 %whence) nounwind {
entry:
  %0 = tail call i64 @__fd_lseek(i32 %fd, i64 %off, i32 %whence) nounwind, !dbg !4555
  ret i64 %0, !dbg !4555
}

define i64 @lseek(i32 %fd, i64 %off, i32 %whence) nounwind {
entry:
  %0 = tail call i64 @__fd_lseek(i32 %fd, i64 %off, i32 %whence) nounwind, !dbg !4557
  ret i64 %0, !dbg !4557
}

define weak i32 @open64(i8* %pathname, i32 %flags, ...) nounwind {
entry:
  %ap = alloca [1 x %struct.__va_list_tag], align 8
  %0 = and i32 %flags, 64, !dbg !4559
  %1 = icmp eq i32 %0, 0, !dbg !4559
  br i1 %1, label %bb8, label %bb, !dbg !4559

bb:                                               ; preds = %entry
  %ap12 = bitcast [1 x %struct.__va_list_tag]* %ap to i8*, !dbg !4560
  call void @llvm.va_start(i8* %ap12), !dbg !4560
  %2 = getelementptr inbounds [1 x %struct.__va_list_tag]* %ap, i64 0, i64 0, i32 0
  %3 = load i32* %2, align 8, !dbg !4561
  %4 = icmp ugt i32 %3, 47
  br i1 %4, label %bb4, label %bb3, !dbg !4561

bb3:                                              ; preds = %bb
  %5 = getelementptr inbounds [1 x %struct.__va_list_tag]* %ap, i64 0, i64 0, i32 3
  %6 = load i8** %5, align 8, !dbg !4561
  %tmp = zext i32 %3 to i64
  %7 = ptrtoint i8* %6 to i64, !dbg !4561
  %8 = add i64 %7, %tmp, !dbg !4561
  %9 = inttoptr i64 %8 to i8*, !dbg !4561
  %10 = add i32 %3, 8, !dbg !4561
  store i32 %10, i32* %2, align 8, !dbg !4561
  br label %bb5, !dbg !4561

bb4:                                              ; preds = %bb
  %11 = getelementptr inbounds [1 x %struct.__va_list_tag]* %ap, i64 0, i64 0, i32 2
  %12 = load i8** %11, align 8, !dbg !4561
  %13 = getelementptr inbounds i8* %12, i64 8, !dbg !4561
  store i8* %13, i8** %11, align 8, !dbg !4561
  br label %bb5, !dbg !4561

bb5:                                              ; preds = %bb4, %bb3
  %addr.29.0 = phi i8* [ %12, %bb4 ], [ %9, %bb3 ]
  %14 = bitcast i8* %addr.29.0 to i32*, !dbg !4561
  %15 = load i32* %14, align 4, !dbg !4561
  call void @llvm.va_end(i8* %ap12), !dbg !4562
  br label %bb8, !dbg !4562

bb8:                                              ; preds = %bb5, %entry
  %mode.0 = phi i32 [ %15, %bb5 ], [ 0, %entry ]
  %16 = call i32 @__fd_open(i8* %pathname, i32 %flags, i32 %mode.0) nounwind, !dbg !4563
  ret i32 %16, !dbg !4563
}

declare void @llvm.va_start(i8*) nounwind

declare void @llvm.va_end(i8*) nounwind

define i64 @getdents(i32 %fd, %struct.dirent* %dirp, i64 %nbytes) nounwind {
entry:
  %0 = trunc i64 %nbytes to i32, !dbg !4564
  %1 = tail call i32 @__fd_getdents(i32 %fd, %struct.dirent* %dirp, i32 %0) nounwind, !dbg !4564
  %2 = sext i32 %1 to i64, !dbg !4564
  %3 = icmp sgt i32 %1, 0
  br i1 %3, label %bb, label %bb3, !dbg !4565

bb:                                               ; preds = %entry
  %4 = bitcast %struct.dirent* %dirp to i8*, !dbg !4566
  %5 = getelementptr inbounds i8* %4, i64 %2, !dbg !4566
  %6 = bitcast i8* %5 to %struct.dirent*, !dbg !4566
  %7 = icmp ugt %struct.dirent* %6, %dirp, !dbg !4567
  br i1 %7, label %bb1, label %bb3, !dbg !4567

bb1:                                              ; preds = %bb1, %bb
  %dp64.05 = phi %struct.dirent* [ %13, %bb1 ], [ %dirp, %bb ]
  %8 = getelementptr inbounds %struct.dirent* %dp64.05, i64 0, i32 2, !dbg !4568
  %9 = load i16* %8, align 8, !dbg !4568
  %10 = zext i16 %9 to i64, !dbg !4568
  %11 = bitcast %struct.dirent* %dp64.05 to i8*, !dbg !4569
  %12 = getelementptr inbounds i8* %11, i64 %10, !dbg !4569
  %13 = bitcast i8* %12 to %struct.dirent*, !dbg !4569
  %14 = icmp ult i8* %12, %5
  br i1 %14, label %bb1, label %bb3, !dbg !4567

bb3:                                              ; preds = %bb1, %bb, %entry
  ret i64 %2, !dbg !4570
}

define i32 @statfs(i8* %path, %struct.statfs* %buf32) nounwind {
entry:
  %0 = tail call i32 @__fd_statfs(i8* %path, %struct.statfs* %buf32) nounwind, !dbg !4571
  ret i32 %0, !dbg !4571
}

define i32 @ftruncate(i32 %fd, i64 %length) nounwind {
entry:
  %0 = tail call i32 @__fd_ftruncate(i32 %fd, i64 %length) nounwind, !dbg !4573
  ret i32 %0, !dbg !4573
}

define i32 @access(i8* %pathname, i32 %mode) nounwind {
entry:
  %0 = load i8* %pathname, align 1, !dbg !4575
  %1 = icmp eq i8 %0, 0, !dbg !4577
  br i1 %1, label %bb1, label %bb.i, !dbg !4577

bb.i:                                             ; preds = %entry
  %2 = getelementptr inbounds i8* %pathname, i64 1, !dbg !4577
  %3 = load i8* %2, align 1, !dbg !4577
  %4 = icmp eq i8 %3, 0, !dbg !4577
  br i1 %4, label %bb8.preheader.i, label %bb1, !dbg !4577

bb8.preheader.i:                                  ; preds = %bb.i
  %5 = load i32* getelementptr inbounds (%struct.exe_file_system_t* @__exe_fs, i64 0, i32 0), align 8, !dbg !4578
  %6 = sext i8 %0 to i32, !dbg !4579
  br label %bb8.i

bb3.i:                                            ; preds = %bb8.i
  %sext.i = shl i32 %18, 24
  %7 = ashr i32 %sext.i, 24
  %8 = add nsw i32 %7, 65, !dbg !4579
  %9 = icmp eq i32 %6, %8, !dbg !4579
  br i1 %9, label %bb4.i, label %bb7.i, !dbg !4579

bb4.i:                                            ; preds = %bb3.i
  %10 = load %struct.exe_disk_file_t** getelementptr inbounds (%struct.exe_file_system_t* @__exe_fs, i64 0, i32 4), align 8, !dbg !4580
  %11 = zext i32 %18 to i64, !dbg !4580
  %12 = getelementptr inbounds %struct.exe_disk_file_t* %10, i64 %11, i32 2, !dbg !4581
  %13 = load %struct.stat64** %12, align 8, !dbg !4581
  %14 = getelementptr inbounds %struct.stat64* %13, i64 0, i32 1, !dbg !4581
  %15 = load i64* %14, align 8, !dbg !4581
  %16 = icmp eq i64 %15, 0, !dbg !4581
  br i1 %16, label %bb1, label %__get_sym_file.exit, !dbg !4581

bb7.i:                                            ; preds = %bb3.i
  %17 = add i32 %18, 1, !dbg !4578
  br label %bb8.i, !dbg !4578

bb8.i:                                            ; preds = %bb7.i, %bb8.preheader.i
  %18 = phi i32 [ %17, %bb7.i ], [ 0, %bb8.preheader.i ]
  %19 = icmp ugt i32 %5, %18, !dbg !4578
  br i1 %19, label %bb3.i, label %bb1, !dbg !4578

__get_sym_file.exit:                              ; preds = %bb4.i
  %20 = getelementptr inbounds %struct.exe_disk_file_t* %10, i64 %11, !dbg !4580
  %phitmp = icmp eq %struct.exe_disk_file_t* %20, null
  br i1 %phitmp, label %bb1, label %bb4, !dbg !4582

bb1:                                              ; preds = %__get_sym_file.exit, %bb8.i, %bb4.i, %bb.i, %entry
  %21 = ptrtoint i8* %pathname to i64, !dbg !4583
  %22 = tail call i64 @klee_get_valuel(i64 %21) nounwind, !dbg !4583
  %23 = inttoptr i64 %22 to i8*, !dbg !4583
  %24 = icmp eq i8* %23, %pathname, !dbg !4586
  %25 = zext i1 %24 to i64, !dbg !4586
  tail call void @klee_assume(i64 %25) nounwind, !dbg !4586
  br label %bb.i6, !dbg !4587

